ARM GAS  C:\Users\wzh\AppData\Local\Temp\ccURPXkh.s 			page 1


   1              		.cpu cortex-m0
   2              		.fpu softvfp
   3              		.eabi_attribute 20, 1
   4              		.eabi_attribute 21, 1
   5              		.eabi_attribute 23, 3
   6              		.eabi_attribute 24, 1
   7              		.eabi_attribute 25, 1
   8              		.eabi_attribute 26, 1
   9              		.eabi_attribute 30, 6
  10              		.eabi_attribute 34, 0
  11              		.eabi_attribute 18, 4
  12              		.code	16
  13              		.file	"BLE_bas.c"
  14              		.text
  15              	.Ltext0:
  16              		.cfi_sections	.debug_frame
  17              		.bss
  18              		.align	2
  19              	CyBle_BasApplCallback:
  20 0000 00000000 		.space	4
  21              		.global	cyBle_bass
  22              		.section	.rodata
  23              		.align	2
  24              		.type	cyBle_bass, %object
  25              		.size	cyBle_bass, 16
  26              	cyBle_bass:
  27 0000 0F00     		.short	15
  28 0002 1100     		.short	17
  29 0004 1200     		.short	18
  30 0006 1300     		.short	19
  31 0008 1400     		.short	20
  32 000a 1600     		.short	22
  33 000c 1700     		.short	23
  34 000e 1800     		.short	24
  35              		.section	.text.CyBle_BasInit,"ax",%progbits
  36              		.align	2
  37              		.global	CyBle_BasInit
  38              		.code	16
  39              		.thumb_func
  40              		.type	CyBle_BasInit, %function
  41              	CyBle_BasInit:
  42              	.LFB2:
  43              		.file 1 ".\\Generated_Source\\PSoC4\\BLE_bas.c"
   1:.\Generated_Source\PSoC4/BLE_bas.c **** /*******************************************************************************
   2:.\Generated_Source\PSoC4/BLE_bas.c **** File Name: CYBLE_bas.c
   3:.\Generated_Source\PSoC4/BLE_bas.c **** Version 1.0
   4:.\Generated_Source\PSoC4/BLE_bas.c **** 
   5:.\Generated_Source\PSoC4/BLE_bas.c **** Description:
   6:.\Generated_Source\PSoC4/BLE_bas.c ****  Contains the source code for Battery Service.
   7:.\Generated_Source\PSoC4/BLE_bas.c **** 
   8:.\Generated_Source\PSoC4/BLE_bas.c **** ********************************************************************************
   9:.\Generated_Source\PSoC4/BLE_bas.c **** Copyright 2014, Cypress Semiconductor Corporation.  All rights reserved.
  10:.\Generated_Source\PSoC4/BLE_bas.c **** You may use this file only in accordance with the license, terms, conditions,
  11:.\Generated_Source\PSoC4/BLE_bas.c **** disclaimers, and limitations in the end user license agreement accompanying
  12:.\Generated_Source\PSoC4/BLE_bas.c **** the software package with which this file was provided.
  13:.\Generated_Source\PSoC4/BLE_bas.c **** *******************************************************************************/
  14:.\Generated_Source\PSoC4/BLE_bas.c **** 
ARM GAS  C:\Users\wzh\AppData\Local\Temp\ccURPXkh.s 			page 2


  15:.\Generated_Source\PSoC4/BLE_bas.c **** 
  16:.\Generated_Source\PSoC4/BLE_bas.c **** #include "BLE_eventHandler.h"
  17:.\Generated_Source\PSoC4/BLE_bas.c **** 
  18:.\Generated_Source\PSoC4/BLE_bas.c **** static CYBLE_CALLBACK_T CyBle_BasApplCallback = NULL;
  19:.\Generated_Source\PSoC4/BLE_bas.c **** 
  20:.\Generated_Source\PSoC4/BLE_bas.c **** #ifdef CYBLE_BAS_SERVER
  21:.\Generated_Source\PSoC4/BLE_bas.c **** 
  22:.\Generated_Source\PSoC4/BLE_bas.c **** const CYBLE_BASS_T cyBle_bass[0x02u] = {
  23:.\Generated_Source\PSoC4/BLE_bas.c ****     {
  24:.\Generated_Source\PSoC4/BLE_bas.c ****         0x000Fu, /* Handle of the BAS service */ 
  25:.\Generated_Source\PSoC4/BLE_bas.c ****         0x0011u, /* Handle of the Battery Level characteristic */ 
  26:.\Generated_Source\PSoC4/BLE_bas.c ****         0x0012u, /* Handle of the Characteristic Presentation Format descriptor */ 
  27:.\Generated_Source\PSoC4/BLE_bas.c ****         0x0013u, /* Handle of the Client Characteristic Configuration descriptor */ 
  28:.\Generated_Source\PSoC4/BLE_bas.c ****     },
  29:.\Generated_Source\PSoC4/BLE_bas.c ****     {
  30:.\Generated_Source\PSoC4/BLE_bas.c ****         0x0014u, /* Handle of the BAS service */ 
  31:.\Generated_Source\PSoC4/BLE_bas.c ****         0x0016u, /* Handle of the Battery Level characteristic */ 
  32:.\Generated_Source\PSoC4/BLE_bas.c ****         0x0017u, /* Handle of the Characteristic Presentation Format descriptor */ 
  33:.\Generated_Source\PSoC4/BLE_bas.c ****         0x0018u, /* Handle of the Client Characteristic Configuration descriptor */ 
  34:.\Generated_Source\PSoC4/BLE_bas.c ****     },
  35:.\Generated_Source\PSoC4/BLE_bas.c **** };
  36:.\Generated_Source\PSoC4/BLE_bas.c **** 
  37:.\Generated_Source\PSoC4/BLE_bas.c **** 
  38:.\Generated_Source\PSoC4/BLE_bas.c **** #endif /* CYBLE_BAS_SERVER */
  39:.\Generated_Source\PSoC4/BLE_bas.c **** 
  40:.\Generated_Source\PSoC4/BLE_bas.c **** #ifdef CYBLE_BAS_CLIENT
  41:.\Generated_Source\PSoC4/BLE_bas.c **** 
  42:.\Generated_Source\PSoC4/BLE_bas.c **** CYBLE_BASC_T cyBle_basc[CYBLE_BASC_SERVICE_COUNT];
  43:.\Generated_Source\PSoC4/BLE_bas.c **** static CYBLE_GATT_DB_ATTR_HANDLE_T cyBle_bascReqHandle;
  44:.\Generated_Source\PSoC4/BLE_bas.c **** 
  45:.\Generated_Source\PSoC4/BLE_bas.c **** #endif /* (CYBLE_BAS_CLIENT) */
  46:.\Generated_Source\PSoC4/BLE_bas.c **** 
  47:.\Generated_Source\PSoC4/BLE_bas.c **** 
  48:.\Generated_Source\PSoC4/BLE_bas.c **** /******************************************************************************
  49:.\Generated_Source\PSoC4/BLE_bas.c **** ##Function Name: CyBle_BasInit
  50:.\Generated_Source\PSoC4/BLE_bas.c **** *******************************************************************************
  51:.\Generated_Source\PSoC4/BLE_bas.c **** 
  52:.\Generated_Source\PSoC4/BLE_bas.c **** Summary:
  53:.\Generated_Source\PSoC4/BLE_bas.c ****  This function initializes the BAS Service.
  54:.\Generated_Source\PSoC4/BLE_bas.c **** 
  55:.\Generated_Source\PSoC4/BLE_bas.c **** Parameters:
  56:.\Generated_Source\PSoC4/BLE_bas.c ****  None
  57:.\Generated_Source\PSoC4/BLE_bas.c **** 
  58:.\Generated_Source\PSoC4/BLE_bas.c **** Return:
  59:.\Generated_Source\PSoC4/BLE_bas.c ****  None
  60:.\Generated_Source\PSoC4/BLE_bas.c **** 
  61:.\Generated_Source\PSoC4/BLE_bas.c **** ******************************************************************************/
  62:.\Generated_Source\PSoC4/BLE_bas.c **** void CyBle_BasInit(void)
  63:.\Generated_Source\PSoC4/BLE_bas.c **** {
  44              		.loc 1 63 0
  45              		.cfi_startproc
  46 0000 80B5     		push	{r7, lr}
  47              		.cfi_def_cfa_offset 8
  48              		.cfi_offset 7, -8
  49              		.cfi_offset 14, -4
  50 0002 00AF     		add	r7, sp, #0
  51              		.cfi_def_cfa_register 7
ARM GAS  C:\Users\wzh\AppData\Local\Temp\ccURPXkh.s 			page 3


  64:.\Generated_Source\PSoC4/BLE_bas.c **** 
  65:.\Generated_Source\PSoC4/BLE_bas.c **** #ifdef CYBLE_BAS_CLIENT
  66:.\Generated_Source\PSoC4/BLE_bas.c **** 
  67:.\Generated_Source\PSoC4/BLE_bas.c ****     (void)memset(&cyBle_basc, 0, sizeof(cyBle_basc));
  68:.\Generated_Source\PSoC4/BLE_bas.c ****     cyBle_bascReqHandle = CYBLE_GATT_INVALID_ATTR_HANDLE_VALUE;
  69:.\Generated_Source\PSoC4/BLE_bas.c **** 
  70:.\Generated_Source\PSoC4/BLE_bas.c **** #endif /* CYBLE_BAS_CLIENT */
  71:.\Generated_Source\PSoC4/BLE_bas.c **** }
  52              		.loc 1 71 0
  53 0004 BD46     		mov	sp, r7
  54              		@ sp needed
  55 0006 80BD     		pop	{r7, pc}
  56              		.cfi_endproc
  57              	.LFE2:
  58              		.size	CyBle_BasInit, .-CyBle_BasInit
  59              		.section	.text.CyBle_BasRegisterAttrCallback,"ax",%progbits
  60              		.align	2
  61              		.global	CyBle_BasRegisterAttrCallback
  62              		.code	16
  63              		.thumb_func
  64              		.type	CyBle_BasRegisterAttrCallback, %function
  65              	CyBle_BasRegisterAttrCallback:
  66              	.LFB3:
  72:.\Generated_Source\PSoC4/BLE_bas.c **** 
  73:.\Generated_Source\PSoC4/BLE_bas.c **** 
  74:.\Generated_Source\PSoC4/BLE_bas.c **** /******************************************************************************
  75:.\Generated_Source\PSoC4/BLE_bas.c **** ##Function Name: CyBle_BasRegisterAttrCallback
  76:.\Generated_Source\PSoC4/BLE_bas.c **** *******************************************************************************
  77:.\Generated_Source\PSoC4/BLE_bas.c **** 
  78:.\Generated_Source\PSoC4/BLE_bas.c **** Summary:
  79:.\Generated_Source\PSoC4/BLE_bas.c ****  Registers a callback function for service specific attribute operations.
  80:.\Generated_Source\PSoC4/BLE_bas.c **** 
  81:.\Generated_Source\PSoC4/BLE_bas.c **** Parameters:
  82:.\Generated_Source\PSoC4/BLE_bas.c ****  callbackFunc: An application layer event callback function to receive 
  83:.\Generated_Source\PSoC4/BLE_bas.c ****                    battery service events from the BLE Component. The
  84:.\Generated_Source\PSoC4/BLE_bas.c ****                    definition of CYBLE_CALLBACK_T for Battery Service is, 
  85:.\Generated_Source\PSoC4/BLE_bas.c ****                    
  86:.\Generated_Source\PSoC4/BLE_bas.c ****                    typedef void (* CYBLE_CALLBACK_T) (uint32 eventCode, 
  87:.\Generated_Source\PSoC4/BLE_bas.c ****                                                         void *eventParam)
  88:.\Generated_Source\PSoC4/BLE_bas.c ****                                                         
  89:.\Generated_Source\PSoC4/BLE_bas.c ****                    * eventCode indicates the event that triggered this 
  90:.\Generated_Source\PSoC4/BLE_bas.c ****                       callback (e.g. CYBLE_EVT_BASS_NOTIFICATION_ENABLED)
  91:.\Generated_Source\PSoC4/BLE_bas.c ****                    * eventParam contains the parameters corresponding to the
  92:.\Generated_Source\PSoC4/BLE_bas.c ****                       current event (e.g., pointer to CYBLE_BAS_CHAR_VALUE_T
  93:.\Generated_Source\PSoC4/BLE_bas.c ****                       structure that contains details of the characteristic 
  94:.\Generated_Source\PSoC4/BLE_bas.c ****                       for which notification enabled event was triggered)
  95:.\Generated_Source\PSoC4/BLE_bas.c **** 
  96:.\Generated_Source\PSoC4/BLE_bas.c **** Return:
  97:.\Generated_Source\PSoC4/BLE_bas.c ****  None
  98:.\Generated_Source\PSoC4/BLE_bas.c **** 
  99:.\Generated_Source\PSoC4/BLE_bas.c **** Side Effects: The *eventParams in the callback function should not be used 
 100:.\Generated_Source\PSoC4/BLE_bas.c ****                by the application once the callback function execution is 
 101:.\Generated_Source\PSoC4/BLE_bas.c ****                finished. Otherwise this data may become corrupted.
 102:.\Generated_Source\PSoC4/BLE_bas.c **** 
 103:.\Generated_Source\PSoC4/BLE_bas.c **** ******************************************************************************/
 104:.\Generated_Source\PSoC4/BLE_bas.c **** void CyBle_BasRegisterAttrCallback(CYBLE_CALLBACK_T callbackFunc)
 105:.\Generated_Source\PSoC4/BLE_bas.c **** {
ARM GAS  C:\Users\wzh\AppData\Local\Temp\ccURPXkh.s 			page 4


  67              		.loc 1 105 0
  68              		.cfi_startproc
  69 0000 80B5     		push	{r7, lr}
  70              		.cfi_def_cfa_offset 8
  71              		.cfi_offset 7, -8
  72              		.cfi_offset 14, -4
  73 0002 82B0     		sub	sp, sp, #8
  74              		.cfi_def_cfa_offset 16
  75 0004 00AF     		add	r7, sp, #0
  76              		.cfi_def_cfa_register 7
  77 0006 7860     		str	r0, [r7, #4]
 106:.\Generated_Source\PSoC4/BLE_bas.c ****     CyBle_BasApplCallback = callbackFunc;
  78              		.loc 1 106 0
  79 0008 024B     		ldr	r3, .L3
  80 000a 7A68     		ldr	r2, [r7, #4]
  81 000c 1A60     		str	r2, [r3]
 107:.\Generated_Source\PSoC4/BLE_bas.c **** }
  82              		.loc 1 107 0
  83 000e BD46     		mov	sp, r7
  84 0010 02B0     		add	sp, sp, #8
  85              		@ sp needed
  86 0012 80BD     		pop	{r7, pc}
  87              	.L4:
  88              		.align	2
  89              	.L3:
  90 0014 00000000 		.word	CyBle_BasApplCallback
  91              		.cfi_endproc
  92              	.LFE3:
  93              		.size	CyBle_BasRegisterAttrCallback, .-CyBle_BasRegisterAttrCallback
  94              		.section	.text.CyBle_BassSetCharacteristicValue,"ax",%progbits
  95              		.align	2
  96              		.global	CyBle_BassSetCharacteristicValue
  97              		.code	16
  98              		.thumb_func
  99              		.type	CyBle_BassSetCharacteristicValue, %function
 100              	CyBle_BassSetCharacteristicValue:
 101              	.LFB4:
 108:.\Generated_Source\PSoC4/BLE_bas.c **** 
 109:.\Generated_Source\PSoC4/BLE_bas.c **** #ifdef CYBLE_BAS_SERVER
 110:.\Generated_Source\PSoC4/BLE_bas.c **** 
 111:.\Generated_Source\PSoC4/BLE_bas.c **** 
 112:.\Generated_Source\PSoC4/BLE_bas.c **** /******************************************************************************
 113:.\Generated_Source\PSoC4/BLE_bas.c **** ##Function Name: CyBle_BassSetCharacteristicValue
 114:.\Generated_Source\PSoC4/BLE_bas.c **** *******************************************************************************
 115:.\Generated_Source\PSoC4/BLE_bas.c **** 
 116:.\Generated_Source\PSoC4/BLE_bas.c **** Summary:
 117:.\Generated_Source\PSoC4/BLE_bas.c ****  Sets a characteristic value of the service in the local database.
 118:.\Generated_Source\PSoC4/BLE_bas.c **** 
 119:.\Generated_Source\PSoC4/BLE_bas.c **** Parameters:
 120:.\Generated_Source\PSoC4/BLE_bas.c ****  serviceIndex: The index of the service instance.
 121:.\Generated_Source\PSoC4/BLE_bas.c ****  charIndex: The index of the service characteristic of type 
 122:.\Generated_Source\PSoC4/BLE_bas.c ****              CYBLE_BAS_CHAR_INDEX_T.
 123:.\Generated_Source\PSoC4/BLE_bas.c ****  attrSize: The size of the characteristic value attribute. A battery level
 124:.\Generated_Source\PSoC4/BLE_bas.c ****             characteristic has 1 byte length.
 125:.\Generated_Source\PSoC4/BLE_bas.c ****  *attrValue: The pointer to the characteristic value data that should be
 126:.\Generated_Source\PSoC4/BLE_bas.c ****               stored to the GATT database.
 127:.\Generated_Source\PSoC4/BLE_bas.c **** 
ARM GAS  C:\Users\wzh\AppData\Local\Temp\ccURPXkh.s 			page 5


 128:.\Generated_Source\PSoC4/BLE_bas.c **** Return:
 129:.\Generated_Source\PSoC4/BLE_bas.c ****  Return value is of type CYBLE_API_RESULT_T.
 130:.\Generated_Source\PSoC4/BLE_bas.c ****  * CYBLE_ERROR_OK - The request handled successfully
 131:.\Generated_Source\PSoC4/BLE_bas.c ****  * CYBLE_ERROR_INVALID_PARAMETER - Validation of the input parameter failed
 132:.\Generated_Source\PSoC4/BLE_bas.c **** 
 133:.\Generated_Source\PSoC4/BLE_bas.c **** ******************************************************************************/
 134:.\Generated_Source\PSoC4/BLE_bas.c **** CYBLE_API_RESULT_T CyBle_BassSetCharacteristicValue(uint8 serviceIndex, CYBLE_BAS_CHAR_INDEX_T char
 135:.\Generated_Source\PSoC4/BLE_bas.c ****     uint8 attrSize, uint8 *attrValue)
 136:.\Generated_Source\PSoC4/BLE_bas.c **** {
 102              		.loc 1 136 0
 103              		.cfi_startproc
 104 0000 80B5     		push	{r7, lr}
 105              		.cfi_def_cfa_offset 8
 106              		.cfi_offset 7, -8
 107              		.cfi_offset 14, -4
 108 0002 86B0     		sub	sp, sp, #24
 109              		.cfi_def_cfa_offset 32
 110 0004 00AF     		add	r7, sp, #0
 111              		.cfi_def_cfa_register 7
 112 0006 3B60     		str	r3, [r7]
 113 0008 FB1D     		add	r3, r7, #7
 114 000a 1870     		strb	r0, [r3]
 115 000c BB1D     		add	r3, r7, #6
 116 000e 1970     		strb	r1, [r3]
 117 0010 7B1D     		add	r3, r7, #5
 118 0012 1A70     		strb	r2, [r3]
 137:.\Generated_Source\PSoC4/BLE_bas.c ****     CYBLE_API_RESULT_T apiResult = CYBLE_ERROR_OK;
 119              		.loc 1 137 0
 120 0014 3B1C     		mov	r3, r7
 121 0016 1633     		add	r3, r3, #22
 122 0018 0022     		mov	r2, #0
 123 001a 1A80     		strh	r2, [r3]
 138:.\Generated_Source\PSoC4/BLE_bas.c ****     CYBLE_GATT_HANDLE_VALUE_PAIR_T locHandleValuePair;
 139:.\Generated_Source\PSoC4/BLE_bas.c **** 
 140:.\Generated_Source\PSoC4/BLE_bas.c ****     if((serviceIndex >= CYBLE_BASS_SERVICE_COUNT) || (charIndex >= CYBLE_BAS_CHAR_COUNT) ||
 124              		.loc 1 140 0
 125 001c FB1D     		add	r3, r7, #7
 126 001e 1B78     		ldrb	r3, [r3]
 127 0020 012B     		cmp	r3, #1
 128 0022 0BD8     		bhi	.L6
 129              		.loc 1 140 0 is_stmt 0 discriminator 1
 130 0024 BB1D     		add	r3, r7, #6
 131 0026 1B78     		ldrb	r3, [r3]
 132 0028 002B     		cmp	r3, #0
 133 002a 07D1     		bne	.L6
 134 002c 7B1D     		add	r3, r7, #5
 135 002e 1B78     		ldrb	r3, [r3]
 136 0030 012B     		cmp	r3, #1
 137 0032 03D1     		bne	.L6
 141:.\Generated_Source\PSoC4/BLE_bas.c ****        (attrSize != CYBLE_BAS_BATTERY_LEVEL_LEN) || (*attrValue > CYBLE_BAS_MAX_BATTERY_LEVEL_VALUE
 138              		.loc 1 141 0 is_stmt 1
 139 0034 3B68     		ldr	r3, [r7]
 140 0036 1B78     		ldrb	r3, [r3]
 141 0038 642B     		cmp	r3, #100
 142 003a 04D9     		bls	.L7
 143              	.L6:
 142:.\Generated_Source\PSoC4/BLE_bas.c ****     {
ARM GAS  C:\Users\wzh\AppData\Local\Temp\ccURPXkh.s 			page 6


 143:.\Generated_Source\PSoC4/BLE_bas.c ****         apiResult = CYBLE_ERROR_INVALID_PARAMETER;
 144              		.loc 1 143 0
 145 003c 3B1C     		mov	r3, r7
 146 003e 1633     		add	r3, r3, #22
 147 0040 0122     		mov	r2, #1
 148 0042 1A80     		strh	r2, [r3]
 149 0044 21E0     		b	.L8
 150              	.L7:
 144:.\Generated_Source\PSoC4/BLE_bas.c ****     }
 145:.\Generated_Source\PSoC4/BLE_bas.c ****     else
 146:.\Generated_Source\PSoC4/BLE_bas.c ****     {
 147:.\Generated_Source\PSoC4/BLE_bas.c ****         /* Store data in database */
 148:.\Generated_Source\PSoC4/BLE_bas.c ****         locHandleValuePair.attrHandle = cyBle_bass[serviceIndex].batteryLevelHandle;
 151              		.loc 1 148 0
 152 0046 FB1D     		add	r3, r7, #7
 153 0048 1B78     		ldrb	r3, [r3]
 154 004a 134A     		ldr	r2, .L10
 155 004c DB00     		lsl	r3, r3, #3
 156 004e D318     		add	r3, r2, r3
 157 0050 5A88     		ldrh	r2, [r3, #2]
 158 0052 3B1C     		mov	r3, r7
 159 0054 0833     		add	r3, r3, #8
 160 0056 1A81     		strh	r2, [r3, #8]
 149:.\Generated_Source\PSoC4/BLE_bas.c ****         locHandleValuePair.value.len = attrSize;
 161              		.loc 1 149 0
 162 0058 7B1D     		add	r3, r7, #5
 163 005a 1B78     		ldrb	r3, [r3]
 164 005c 9AB2     		uxth	r2, r3
 165 005e 3B1C     		mov	r3, r7
 166 0060 0833     		add	r3, r3, #8
 167 0062 9A80     		strh	r2, [r3, #4]
 150:.\Generated_Source\PSoC4/BLE_bas.c ****         locHandleValuePair.value.val = attrValue;
 168              		.loc 1 150 0
 169 0064 3B1C     		mov	r3, r7
 170 0066 0833     		add	r3, r3, #8
 171 0068 3A68     		ldr	r2, [r7]
 172 006a 1A60     		str	r2, [r3]
 151:.\Generated_Source\PSoC4/BLE_bas.c ****         if(CYBLE_GATT_ERR_NONE !=
 152:.\Generated_Source\PSoC4/BLE_bas.c ****             CyBle_GattsWriteAttributeValue(&locHandleValuePair, 0u, NULL, CYBLE_GATT_DB_LOCALLY_INI
 173              		.loc 1 152 0
 174 006c 3B1C     		mov	r3, r7
 175 006e 0833     		add	r3, r3, #8
 176 0070 181C     		mov	r0, r3
 177 0072 0021     		mov	r1, #0
 178 0074 0022     		mov	r2, #0
 179 0076 0023     		mov	r3, #0
 180 0078 FFF7FEFF 		bl	CyBle_GattsWriteAttributeValue
 181 007c 031C     		mov	r3, r0
 151:.\Generated_Source\PSoC4/BLE_bas.c ****         if(CYBLE_GATT_ERR_NONE !=
 182              		.loc 1 151 0
 183 007e 002B     		cmp	r3, #0
 184 0080 03D0     		beq	.L8
 153:.\Generated_Source\PSoC4/BLE_bas.c ****         {
 154:.\Generated_Source\PSoC4/BLE_bas.c ****             apiResult = CYBLE_ERROR_INVALID_PARAMETER;
 185              		.loc 1 154 0
 186 0082 3B1C     		mov	r3, r7
 187 0084 1633     		add	r3, r3, #22
ARM GAS  C:\Users\wzh\AppData\Local\Temp\ccURPXkh.s 			page 7


 188 0086 0122     		mov	r2, #1
 189 0088 1A80     		strh	r2, [r3]
 190              	.L8:
 155:.\Generated_Source\PSoC4/BLE_bas.c ****         }
 156:.\Generated_Source\PSoC4/BLE_bas.c ****     }
 157:.\Generated_Source\PSoC4/BLE_bas.c ****     return (apiResult);
 191              		.loc 1 157 0
 192 008a 3B1C     		mov	r3, r7
 193 008c 1633     		add	r3, r3, #22
 194 008e 1B88     		ldrh	r3, [r3]
 158:.\Generated_Source\PSoC4/BLE_bas.c **** }
 195              		.loc 1 158 0
 196 0090 181C     		mov	r0, r3
 197 0092 BD46     		mov	sp, r7
 198 0094 06B0     		add	sp, sp, #24
 199              		@ sp needed
 200 0096 80BD     		pop	{r7, pc}
 201              	.L11:
 202              		.align	2
 203              	.L10:
 204 0098 00000000 		.word	cyBle_bass
 205              		.cfi_endproc
 206              	.LFE4:
 207              		.size	CyBle_BassSetCharacteristicValue, .-CyBle_BassSetCharacteristicValue
 208              		.section	.text.CyBle_BassGetCharacteristicValue,"ax",%progbits
 209              		.align	2
 210              		.global	CyBle_BassGetCharacteristicValue
 211              		.code	16
 212              		.thumb_func
 213              		.type	CyBle_BassGetCharacteristicValue, %function
 214              	CyBle_BassGetCharacteristicValue:
 215              	.LFB5:
 159:.\Generated_Source\PSoC4/BLE_bas.c **** 
 160:.\Generated_Source\PSoC4/BLE_bas.c **** 
 161:.\Generated_Source\PSoC4/BLE_bas.c **** /******************************************************************************
 162:.\Generated_Source\PSoC4/BLE_bas.c **** ##Function Name: CyBle_BassGetCharacteristicValue
 163:.\Generated_Source\PSoC4/BLE_bas.c **** *******************************************************************************
 164:.\Generated_Source\PSoC4/BLE_bas.c **** 
 165:.\Generated_Source\PSoC4/BLE_bas.c **** Summary:
 166:.\Generated_Source\PSoC4/BLE_bas.c ****  Gets a characteristic value of the Battery service, which is identified by 
 167:.\Generated_Source\PSoC4/BLE_bas.c ****  charIndex.
 168:.\Generated_Source\PSoC4/BLE_bas.c **** 
 169:.\Generated_Source\PSoC4/BLE_bas.c **** Parameters:
 170:.\Generated_Source\PSoC4/BLE_bas.c ****  serviceIndex: The index of the service instance. e.g. If two Battery Services
 171:.\Generated_Source\PSoC4/BLE_bas.c ****                 are supported in your design, then first service will be 
 172:.\Generated_Source\PSoC4/BLE_bas.c ****                 identified by serviceIndex of 0 and the second by serviceIndex
 173:.\Generated_Source\PSoC4/BLE_bas.c ****                 of 1.
 174:.\Generated_Source\PSoC4/BLE_bas.c ****  charIndex: The index of a service characteristic of type CYBLE_BAS_CHAR_INDEX_T.
 175:.\Generated_Source\PSoC4/BLE_bas.c ****  attrSize: The size of the characteristic value attribute. A battery level
 176:.\Generated_Source\PSoC4/BLE_bas.c ****             characteristic has a 1 byte length.
 177:.\Generated_Source\PSoC4/BLE_bas.c ****  *attrValue: The pointer to the location where characteristic value data
 178:.\Generated_Source\PSoC4/BLE_bas.c ****               should be stored.
 179:.\Generated_Source\PSoC4/BLE_bas.c **** 
 180:.\Generated_Source\PSoC4/BLE_bas.c **** Return:
 181:.\Generated_Source\PSoC4/BLE_bas.c ****  Return value is of type CYBLE_API_RESULT_T.
 182:.\Generated_Source\PSoC4/BLE_bas.c ****  * CYBLE_ERROR_OK - The request handled successfully
 183:.\Generated_Source\PSoC4/BLE_bas.c ****  * CYBLE_ERROR_INVALID_PARAMETER - Validation of the input parameter failed
ARM GAS  C:\Users\wzh\AppData\Local\Temp\ccURPXkh.s 			page 8


 184:.\Generated_Source\PSoC4/BLE_bas.c **** 
 185:.\Generated_Source\PSoC4/BLE_bas.c **** ******************************************************************************/
 186:.\Generated_Source\PSoC4/BLE_bas.c **** CYBLE_API_RESULT_T CyBle_BassGetCharacteristicValue(uint8 serviceIndex, CYBLE_BAS_CHAR_INDEX_T char
 187:.\Generated_Source\PSoC4/BLE_bas.c ****     uint8 attrSize, uint8 *attrValue)
 188:.\Generated_Source\PSoC4/BLE_bas.c **** {
 216              		.loc 1 188 0
 217              		.cfi_startproc
 218 0000 80B5     		push	{r7, lr}
 219              		.cfi_def_cfa_offset 8
 220              		.cfi_offset 7, -8
 221              		.cfi_offset 14, -4
 222 0002 86B0     		sub	sp, sp, #24
 223              		.cfi_def_cfa_offset 32
 224 0004 00AF     		add	r7, sp, #0
 225              		.cfi_def_cfa_register 7
 226 0006 3B60     		str	r3, [r7]
 227 0008 FB1D     		add	r3, r7, #7
 228 000a 1870     		strb	r0, [r3]
 229 000c BB1D     		add	r3, r7, #6
 230 000e 1970     		strb	r1, [r3]
 231 0010 7B1D     		add	r3, r7, #5
 232 0012 1A70     		strb	r2, [r3]
 189:.\Generated_Source\PSoC4/BLE_bas.c ****     CYBLE_API_RESULT_T apiResult = CYBLE_ERROR_OK;
 233              		.loc 1 189 0
 234 0014 3B1C     		mov	r3, r7
 235 0016 1633     		add	r3, r3, #22
 236 0018 0022     		mov	r2, #0
 237 001a 1A80     		strh	r2, [r3]
 190:.\Generated_Source\PSoC4/BLE_bas.c ****     CYBLE_GATT_HANDLE_VALUE_PAIR_T locHandleValuePair;
 191:.\Generated_Source\PSoC4/BLE_bas.c **** 
 192:.\Generated_Source\PSoC4/BLE_bas.c ****     if((serviceIndex >= CYBLE_BASS_SERVICE_COUNT) || (charIndex >= CYBLE_BAS_CHAR_COUNT) ||
 238              		.loc 1 192 0
 239 001c FB1D     		add	r3, r7, #7
 240 001e 1B78     		ldrb	r3, [r3]
 241 0020 012B     		cmp	r3, #1
 242 0022 07D8     		bhi	.L13
 243              		.loc 1 192 0 is_stmt 0 discriminator 1
 244 0024 BB1D     		add	r3, r7, #6
 245 0026 1B78     		ldrb	r3, [r3]
 246 0028 002B     		cmp	r3, #0
 247 002a 03D1     		bne	.L13
 248 002c 7B1D     		add	r3, r7, #5
 249 002e 1B78     		ldrb	r3, [r3]
 250 0030 012B     		cmp	r3, #1
 251 0032 04D0     		beq	.L14
 252              	.L13:
 193:.\Generated_Source\PSoC4/BLE_bas.c ****        (attrSize != CYBLE_BAS_BATTERY_LEVEL_LEN) )
 194:.\Generated_Source\PSoC4/BLE_bas.c ****     {
 195:.\Generated_Source\PSoC4/BLE_bas.c ****         apiResult = CYBLE_ERROR_INVALID_PARAMETER;
 253              		.loc 1 195 0 is_stmt 1
 254 0034 3B1C     		mov	r3, r7
 255 0036 1633     		add	r3, r3, #22
 256 0038 0122     		mov	r2, #1
 257 003a 1A80     		strh	r2, [r3]
 258 003c 20E0     		b	.L15
 259              	.L14:
 196:.\Generated_Source\PSoC4/BLE_bas.c ****     }
ARM GAS  C:\Users\wzh\AppData\Local\Temp\ccURPXkh.s 			page 9


 197:.\Generated_Source\PSoC4/BLE_bas.c ****     else
 198:.\Generated_Source\PSoC4/BLE_bas.c ****     {
 199:.\Generated_Source\PSoC4/BLE_bas.c ****         /* Read characteristic value from database */
 200:.\Generated_Source\PSoC4/BLE_bas.c ****         locHandleValuePair.attrHandle = cyBle_bass[serviceIndex].batteryLevelHandle;
 260              		.loc 1 200 0
 261 003e FB1D     		add	r3, r7, #7
 262 0040 1B78     		ldrb	r3, [r3]
 263 0042 134A     		ldr	r2, .L17
 264 0044 DB00     		lsl	r3, r3, #3
 265 0046 D318     		add	r3, r2, r3
 266 0048 5A88     		ldrh	r2, [r3, #2]
 267 004a 3B1C     		mov	r3, r7
 268 004c 0833     		add	r3, r3, #8
 269 004e 1A81     		strh	r2, [r3, #8]
 201:.\Generated_Source\PSoC4/BLE_bas.c ****         locHandleValuePair.value.len = attrSize;
 270              		.loc 1 201 0
 271 0050 7B1D     		add	r3, r7, #5
 272 0052 1B78     		ldrb	r3, [r3]
 273 0054 9AB2     		uxth	r2, r3
 274 0056 3B1C     		mov	r3, r7
 275 0058 0833     		add	r3, r3, #8
 276 005a 9A80     		strh	r2, [r3, #4]
 202:.\Generated_Source\PSoC4/BLE_bas.c ****         locHandleValuePair.value.val = attrValue;
 277              		.loc 1 202 0
 278 005c 3B1C     		mov	r3, r7
 279 005e 0833     		add	r3, r3, #8
 280 0060 3A68     		ldr	r2, [r7]
 281 0062 1A60     		str	r2, [r3]
 203:.\Generated_Source\PSoC4/BLE_bas.c ****         if(CYBLE_GATT_ERR_NONE !=
 204:.\Generated_Source\PSoC4/BLE_bas.c ****             CyBle_GattsReadAttributeValue(&locHandleValuePair, NULL, CYBLE_GATT_DB_LOCALLY_INITIATE
 282              		.loc 1 204 0
 283 0064 3B1C     		mov	r3, r7
 284 0066 0833     		add	r3, r3, #8
 285 0068 181C     		mov	r0, r3
 286 006a 0021     		mov	r1, #0
 287 006c 0022     		mov	r2, #0
 288 006e FFF7FEFF 		bl	CyBle_GattsReadAttributeValue
 289 0072 031C     		mov	r3, r0
 203:.\Generated_Source\PSoC4/BLE_bas.c ****         if(CYBLE_GATT_ERR_NONE !=
 290              		.loc 1 203 0
 291 0074 002B     		cmp	r3, #0
 292 0076 03D0     		beq	.L15
 205:.\Generated_Source\PSoC4/BLE_bas.c ****         {
 206:.\Generated_Source\PSoC4/BLE_bas.c ****             apiResult = CYBLE_ERROR_INVALID_PARAMETER;
 293              		.loc 1 206 0
 294 0078 3B1C     		mov	r3, r7
 295 007a 1633     		add	r3, r3, #22
 296 007c 0122     		mov	r2, #1
 297 007e 1A80     		strh	r2, [r3]
 298              	.L15:
 207:.\Generated_Source\PSoC4/BLE_bas.c ****         }
 208:.\Generated_Source\PSoC4/BLE_bas.c ****     }
 209:.\Generated_Source\PSoC4/BLE_bas.c ****     return (apiResult);
 299              		.loc 1 209 0
 300 0080 3B1C     		mov	r3, r7
 301 0082 1633     		add	r3, r3, #22
 302 0084 1B88     		ldrh	r3, [r3]
ARM GAS  C:\Users\wzh\AppData\Local\Temp\ccURPXkh.s 			page 10


 210:.\Generated_Source\PSoC4/BLE_bas.c **** }
 303              		.loc 1 210 0
 304 0086 181C     		mov	r0, r3
 305 0088 BD46     		mov	sp, r7
 306 008a 06B0     		add	sp, sp, #24
 307              		@ sp needed
 308 008c 80BD     		pop	{r7, pc}
 309              	.L18:
 310 008e C046     		.align	2
 311              	.L17:
 312 0090 00000000 		.word	cyBle_bass
 313              		.cfi_endproc
 314              	.LFE5:
 315              		.size	CyBle_BassGetCharacteristicValue, .-CyBle_BassGetCharacteristicValue
 316              		.section	.text.CyBle_BassGetCharacteristicDescriptor,"ax",%progbits
 317              		.align	2
 318              		.global	CyBle_BassGetCharacteristicDescriptor
 319              		.code	16
 320              		.thumb_func
 321              		.type	CyBle_BassGetCharacteristicDescriptor, %function
 322              	CyBle_BassGetCharacteristicDescriptor:
 323              	.LFB6:
 211:.\Generated_Source\PSoC4/BLE_bas.c **** 
 212:.\Generated_Source\PSoC4/BLE_bas.c **** 
 213:.\Generated_Source\PSoC4/BLE_bas.c **** /******************************************************************************
 214:.\Generated_Source\PSoC4/BLE_bas.c **** ##Function Name: CyBle_BassGetCharacteristicDescriptor
 215:.\Generated_Source\PSoC4/BLE_bas.c **** *******************************************************************************
 216:.\Generated_Source\PSoC4/BLE_bas.c **** 
 217:.\Generated_Source\PSoC4/BLE_bas.c **** Summary:
 218:.\Generated_Source\PSoC4/BLE_bas.c ****  Gets a characteristic descriptor of a specified characteristic of the 
 219:.\Generated_Source\PSoC4/BLE_bas.c ****   Battery service from the local GATT database.
 220:.\Generated_Source\PSoC4/BLE_bas.c **** 
 221:.\Generated_Source\PSoC4/BLE_bas.c **** Parameters:
 222:.\Generated_Source\PSoC4/BLE_bas.c ****  serviceIndex: The index of the service instance. e.g. If two Battery Services
 223:.\Generated_Source\PSoC4/BLE_bas.c ****                 are supported in your design, then first service will be 
 224:.\Generated_Source\PSoC4/BLE_bas.c ****                 identified by serviceIndex of 0 and the second by serviceIndex
 225:.\Generated_Source\PSoC4/BLE_bas.c ****                 of 1.
 226:.\Generated_Source\PSoC4/BLE_bas.c ****  charIndex: The index of a service characteristic of type 
 227:.\Generated_Source\PSoC4/BLE_bas.c ****              CYBLE_BAS_CHAR_INDEX_T.
 228:.\Generated_Source\PSoC4/BLE_bas.c ****  descrIndex: The index of a service characteristic descriptor of type 
 229:.\Generated_Source\PSoC4/BLE_bas.c ****               CYBLE_BAS_DESCR_INDEX_T.
 230:.\Generated_Source\PSoC4/BLE_bas.c ****  attrSize: The size of the characteristic descriptor attribute.
 231:.\Generated_Source\PSoC4/BLE_bas.c ****  *attrValue: The pointer to the location where characteristic descriptor 
 232:.\Generated_Source\PSoC4/BLE_bas.c ****               value data should be stored.
 233:.\Generated_Source\PSoC4/BLE_bas.c **** 
 234:.\Generated_Source\PSoC4/BLE_bas.c **** Return:
 235:.\Generated_Source\PSoC4/BLE_bas.c ****  Return value is of type CYBLE_API_RESULT_T.
 236:.\Generated_Source\PSoC4/BLE_bas.c ****  * CYBLE_ERROR_OK - The request handled successfully
 237:.\Generated_Source\PSoC4/BLE_bas.c ****  * CYBLE_ERROR_INVALID_PARAMETER - Validation of the input parameter failed
 238:.\Generated_Source\PSoC4/BLE_bas.c **** 
 239:.\Generated_Source\PSoC4/BLE_bas.c **** ******************************************************************************/
 240:.\Generated_Source\PSoC4/BLE_bas.c **** CYBLE_API_RESULT_T CyBle_BassGetCharacteristicDescriptor(uint8 serviceIndex, CYBLE_BAS_CHAR_INDEX_T
 241:.\Generated_Source\PSoC4/BLE_bas.c ****     CYBLE_BAS_DESCR_INDEX_T descrIndex, uint8 attrSize, uint8 *attrValue)
 242:.\Generated_Source\PSoC4/BLE_bas.c **** {
 324              		.loc 1 242 0
 325              		.cfi_startproc
 326 0000 90B5     		push	{r4, r7, lr}
ARM GAS  C:\Users\wzh\AppData\Local\Temp\ccURPXkh.s 			page 11


 327              		.cfi_def_cfa_offset 12
 328              		.cfi_offset 4, -12
 329              		.cfi_offset 7, -8
 330              		.cfi_offset 14, -4
 331 0002 87B0     		sub	sp, sp, #28
 332              		.cfi_def_cfa_offset 40
 333 0004 00AF     		add	r7, sp, #0
 334              		.cfi_def_cfa_register 7
 335 0006 041C     		mov	r4, r0
 336 0008 081C     		mov	r0, r1
 337 000a 111C     		mov	r1, r2
 338 000c 1A1C     		mov	r2, r3
 339 000e FB1D     		add	r3, r7, #7
 340 0010 1C70     		strb	r4, [r3]
 341 0012 BB1D     		add	r3, r7, #6
 342 0014 1870     		strb	r0, [r3]
 343 0016 7B1D     		add	r3, r7, #5
 344 0018 1970     		strb	r1, [r3]
 345 001a 3B1D     		add	r3, r7, #4
 346 001c 1A70     		strb	r2, [r3]
 243:.\Generated_Source\PSoC4/BLE_bas.c ****     CYBLE_API_RESULT_T apiResult = CYBLE_ERROR_OK;
 347              		.loc 1 243 0
 348 001e 3B1C     		mov	r3, r7
 349 0020 1633     		add	r3, r3, #22
 350 0022 0022     		mov	r2, #0
 351 0024 1A80     		strh	r2, [r3]
 244:.\Generated_Source\PSoC4/BLE_bas.c ****     CYBLE_GATT_HANDLE_VALUE_PAIR_T locHandleValuePair;
 245:.\Generated_Source\PSoC4/BLE_bas.c **** 
 246:.\Generated_Source\PSoC4/BLE_bas.c ****     if((serviceIndex >= CYBLE_BASS_SERVICE_COUNT) || (charIndex >= CYBLE_BAS_CHAR_COUNT) ||
 352              		.loc 1 246 0
 353 0026 FB1D     		add	r3, r7, #7
 354 0028 1B78     		ldrb	r3, [r3]
 355 002a 012B     		cmp	r3, #1
 356 002c 07D8     		bhi	.L20
 357              		.loc 1 246 0 is_stmt 0 discriminator 1
 358 002e BB1D     		add	r3, r7, #6
 359 0030 1B78     		ldrb	r3, [r3]
 360 0032 002B     		cmp	r3, #0
 361 0034 03D1     		bne	.L20
 362 0036 7B1D     		add	r3, r7, #5
 363 0038 1B78     		ldrb	r3, [r3]
 364 003a 012B     		cmp	r3, #1
 365 003c 04D9     		bls	.L21
 366              	.L20:
 247:.\Generated_Source\PSoC4/BLE_bas.c ****        (descrIndex >= CYBLE_BAS_DESCR_COUNT))
 248:.\Generated_Source\PSoC4/BLE_bas.c ****     {
 249:.\Generated_Source\PSoC4/BLE_bas.c ****         apiResult = CYBLE_ERROR_INVALID_PARAMETER;
 367              		.loc 1 249 0 is_stmt 1
 368 003e 3B1C     		mov	r3, r7
 369 0040 1633     		add	r3, r3, #22
 370 0042 0122     		mov	r2, #1
 371 0044 1A80     		strh	r2, [r3]
 372 0046 2EE0     		b	.L22
 373              	.L21:
 250:.\Generated_Source\PSoC4/BLE_bas.c ****     }
 251:.\Generated_Source\PSoC4/BLE_bas.c ****     else
 252:.\Generated_Source\PSoC4/BLE_bas.c ****     {
ARM GAS  C:\Users\wzh\AppData\Local\Temp\ccURPXkh.s 			page 12


 253:.\Generated_Source\PSoC4/BLE_bas.c ****         /* Get data from database */
 254:.\Generated_Source\PSoC4/BLE_bas.c ****         if(descrIndex == CYBLE_BAS_BATTERY_LEVEL_CCCD)
 374              		.loc 1 254 0
 375 0048 7B1D     		add	r3, r7, #5
 376 004a 1B78     		ldrb	r3, [r3]
 377 004c 002B     		cmp	r3, #0
 378 004e 09D1     		bne	.L23
 255:.\Generated_Source\PSoC4/BLE_bas.c ****         {
 256:.\Generated_Source\PSoC4/BLE_bas.c ****             locHandleValuePair.attrHandle = cyBle_bass[serviceIndex].cccdHandle;
 379              		.loc 1 256 0
 380 0050 FB1D     		add	r3, r7, #7
 381 0052 1B78     		ldrb	r3, [r3]
 382 0054 174A     		ldr	r2, .L26
 383 0056 DB00     		lsl	r3, r3, #3
 384 0058 D318     		add	r3, r2, r3
 385 005a DA88     		ldrh	r2, [r3, #6]
 386 005c 3B1C     		mov	r3, r7
 387 005e 0833     		add	r3, r3, #8
 388 0060 1A81     		strh	r2, [r3, #8]
 389 0062 08E0     		b	.L24
 390              	.L23:
 257:.\Generated_Source\PSoC4/BLE_bas.c ****         }
 258:.\Generated_Source\PSoC4/BLE_bas.c ****         else
 259:.\Generated_Source\PSoC4/BLE_bas.c ****         {
 260:.\Generated_Source\PSoC4/BLE_bas.c ****             locHandleValuePair.attrHandle = cyBle_bass[serviceIndex].cpfdHandle;
 391              		.loc 1 260 0
 392 0064 FB1D     		add	r3, r7, #7
 393 0066 1B78     		ldrb	r3, [r3]
 394 0068 124A     		ldr	r2, .L26
 395 006a DB00     		lsl	r3, r3, #3
 396 006c D318     		add	r3, r2, r3
 397 006e 9A88     		ldrh	r2, [r3, #4]
 398 0070 3B1C     		mov	r3, r7
 399 0072 0833     		add	r3, r3, #8
 400 0074 1A81     		strh	r2, [r3, #8]
 401              	.L24:
 261:.\Generated_Source\PSoC4/BLE_bas.c ****         }
 262:.\Generated_Source\PSoC4/BLE_bas.c ****         locHandleValuePair.value.len = attrSize;
 402              		.loc 1 262 0
 403 0076 3B1D     		add	r3, r7, #4
 404 0078 1B78     		ldrb	r3, [r3]
 405 007a 9AB2     		uxth	r2, r3
 406 007c 3B1C     		mov	r3, r7
 407 007e 0833     		add	r3, r3, #8
 408 0080 9A80     		strh	r2, [r3, #4]
 263:.\Generated_Source\PSoC4/BLE_bas.c ****         locHandleValuePair.value.val = attrValue;
 409              		.loc 1 263 0
 410 0082 3B1C     		mov	r3, r7
 411 0084 0833     		add	r3, r3, #8
 412 0086 BA6A     		ldr	r2, [r7, #40]
 413 0088 1A60     		str	r2, [r3]
 264:.\Generated_Source\PSoC4/BLE_bas.c ****         if(CYBLE_GATT_ERR_NONE !=
 265:.\Generated_Source\PSoC4/BLE_bas.c ****             CyBle_GattsReadAttributeValue(&locHandleValuePair, NULL, CYBLE_GATT_DB_LOCALLY_INITIATE
 414              		.loc 1 265 0
 415 008a 3B1C     		mov	r3, r7
 416 008c 0833     		add	r3, r3, #8
 417 008e 181C     		mov	r0, r3
ARM GAS  C:\Users\wzh\AppData\Local\Temp\ccURPXkh.s 			page 13


 418 0090 0021     		mov	r1, #0
 419 0092 0022     		mov	r2, #0
 420 0094 FFF7FEFF 		bl	CyBle_GattsReadAttributeValue
 421 0098 031C     		mov	r3, r0
 264:.\Generated_Source\PSoC4/BLE_bas.c ****         if(CYBLE_GATT_ERR_NONE !=
 422              		.loc 1 264 0
 423 009a 002B     		cmp	r3, #0
 424 009c 03D0     		beq	.L22
 266:.\Generated_Source\PSoC4/BLE_bas.c ****         {
 267:.\Generated_Source\PSoC4/BLE_bas.c ****             apiResult = CYBLE_ERROR_INVALID_PARAMETER;
 425              		.loc 1 267 0
 426 009e 3B1C     		mov	r3, r7
 427 00a0 1633     		add	r3, r3, #22
 428 00a2 0122     		mov	r2, #1
 429 00a4 1A80     		strh	r2, [r3]
 430              	.L22:
 268:.\Generated_Source\PSoC4/BLE_bas.c ****         }
 269:.\Generated_Source\PSoC4/BLE_bas.c ****     }
 270:.\Generated_Source\PSoC4/BLE_bas.c ****     return (apiResult);
 431              		.loc 1 270 0
 432 00a6 3B1C     		mov	r3, r7
 433 00a8 1633     		add	r3, r3, #22
 434 00aa 1B88     		ldrh	r3, [r3]
 271:.\Generated_Source\PSoC4/BLE_bas.c **** }
 435              		.loc 1 271 0
 436 00ac 181C     		mov	r0, r3
 437 00ae BD46     		mov	sp, r7
 438 00b0 07B0     		add	sp, sp, #28
 439              		@ sp needed
 440 00b2 90BD     		pop	{r4, r7, pc}
 441              	.L27:
 442              		.align	2
 443              	.L26:
 444 00b4 00000000 		.word	cyBle_bass
 445              		.cfi_endproc
 446              	.LFE6:
 447              		.size	CyBle_BassGetCharacteristicDescriptor, .-CyBle_BassGetCharacteristicDescriptor
 448              		.section	.text.CyBle_BassWriteEventHandler,"ax",%progbits
 449              		.align	2
 450              		.global	CyBle_BassWriteEventHandler
 451              		.code	16
 452              		.thumb_func
 453              		.type	CyBle_BassWriteEventHandler, %function
 454              	CyBle_BassWriteEventHandler:
 455              	.LFB7:
 272:.\Generated_Source\PSoC4/BLE_bas.c **** 
 273:.\Generated_Source\PSoC4/BLE_bas.c **** 
 274:.\Generated_Source\PSoC4/BLE_bas.c **** /******************************************************************************
 275:.\Generated_Source\PSoC4/BLE_bas.c **** ##Function Name: CyBle_BassWriteEventHandler
 276:.\Generated_Source\PSoC4/BLE_bas.c **** *******************************************************************************
 277:.\Generated_Source\PSoC4/BLE_bas.c **** 
 278:.\Generated_Source\PSoC4/BLE_bas.c **** Summary:
 279:.\Generated_Source\PSoC4/BLE_bas.c ****  Handles the Write Request Event for Battery service.
 280:.\Generated_Source\PSoC4/BLE_bas.c **** 
 281:.\Generated_Source\PSoC4/BLE_bas.c **** Parameters:
 282:.\Generated_Source\PSoC4/BLE_bas.c ****  void *eventParam: the pointer to the data structure specified by the event.
 283:.\Generated_Source\PSoC4/BLE_bas.c **** 
ARM GAS  C:\Users\wzh\AppData\Local\Temp\ccURPXkh.s 			page 14


 284:.\Generated_Source\PSoC4/BLE_bas.c **** Return:
 285:.\Generated_Source\PSoC4/BLE_bas.c ****  Return value is of type CYBLE_GATT_ERR_CODE_T.
 286:.\Generated_Source\PSoC4/BLE_bas.c ****   * CYBLE_GATT_ERR_NONE - Write request is handled successfully.
 287:.\Generated_Source\PSoC4/BLE_bas.c ****   * CYBLE_GATT_ERR_REQUEST_NOT_SUPPORTED - Notification isn't supported.
 288:.\Generated_Source\PSoC4/BLE_bas.c ****   * CYBLE_GATT_ERR_UNLIKELY_ERROR - Internal error while writing attribute
 289:.\Generated_Source\PSoC4/BLE_bas.c ****                                      value.
 290:.\Generated_Source\PSoC4/BLE_bas.c **** 
 291:.\Generated_Source\PSoC4/BLE_bas.c **** ******************************************************************************/
 292:.\Generated_Source\PSoC4/BLE_bas.c **** CYBLE_GATT_ERR_CODE_T CyBle_BassWriteEventHandler(CYBLE_GATTS_WRITE_REQ_PARAM_T *eventParam)
 293:.\Generated_Source\PSoC4/BLE_bas.c **** {
 456              		.loc 1 293 0
 457              		.cfi_startproc
 458 0000 90B5     		push	{r4, r7, lr}
 459              		.cfi_def_cfa_offset 12
 460              		.cfi_offset 4, -12
 461              		.cfi_offset 7, -8
 462              		.cfi_offset 14, -4
 463 0002 87B0     		sub	sp, sp, #28
 464              		.cfi_def_cfa_offset 40
 465 0004 00AF     		add	r7, sp, #0
 466              		.cfi_def_cfa_register 7
 467 0006 7860     		str	r0, [r7, #4]
 294:.\Generated_Source\PSoC4/BLE_bas.c ****     uint8 locServiceIndex = 0u;
 468              		.loc 1 294 0
 469 0008 3B1C     		mov	r3, r7
 470 000a 1733     		add	r3, r3, #23
 471 000c 0022     		mov	r2, #0
 472 000e 1A70     		strb	r2, [r3]
 295:.\Generated_Source\PSoC4/BLE_bas.c ****     CYBLE_BAS_CHAR_VALUE_T locCharIndex;
 296:.\Generated_Source\PSoC4/BLE_bas.c ****     CYBLE_GATT_ERR_CODE_T gattErr = CYBLE_GATT_ERR_NONE;
 473              		.loc 1 296 0
 474 0010 3B1C     		mov	r3, r7
 475 0012 1633     		add	r3, r3, #22
 476 0014 0022     		mov	r2, #0
 477 0016 1A70     		strb	r2, [r3]
 297:.\Generated_Source\PSoC4/BLE_bas.c **** 
 298:.\Generated_Source\PSoC4/BLE_bas.c ****     if(NULL != CyBle_BasApplCallback)
 478              		.loc 1 298 0
 479 0018 444B     		ldr	r3, .L37
 480 001a 1B68     		ldr	r3, [r3]
 481 001c 002B     		cmp	r3, #0
 482 001e 00D1     		bne	.LCB400
 483 0020 7DE0     		b	.L29	@long jump
 484              	.LCB400:
 485              	.L35:
 299:.\Generated_Source\PSoC4/BLE_bas.c ****     {
 300:.\Generated_Source\PSoC4/BLE_bas.c ****         do
 301:.\Generated_Source\PSoC4/BLE_bas.c ****         {
 302:.\Generated_Source\PSoC4/BLE_bas.c ****             /* Client Characteristic Configuration descriptor write request */
 303:.\Generated_Source\PSoC4/BLE_bas.c ****             if(eventParam->handleValPair.attrHandle == cyBle_bass[locServiceIndex].cccdHandle)
 486              		.loc 1 303 0
 487 0022 7B68     		ldr	r3, [r7, #4]
 488 0024 9A89     		ldrh	r2, [r3, #12]
 489 0026 3B1C     		mov	r3, r7
 490 0028 1733     		add	r3, r3, #23
 491 002a 1B78     		ldrb	r3, [r3]
 492 002c 4049     		ldr	r1, .L37+4
ARM GAS  C:\Users\wzh\AppData\Local\Temp\ccURPXkh.s 			page 15


 493 002e DB00     		lsl	r3, r3, #3
 494 0030 CB18     		add	r3, r1, r3
 495 0032 DB88     		ldrh	r3, [r3, #6]
 496 0034 9A42     		cmp	r2, r3
 497 0036 65D1     		bne	.L30
 304:.\Generated_Source\PSoC4/BLE_bas.c ****             {
 305:.\Generated_Source\PSoC4/BLE_bas.c ****                 /* Verify that optional notification property is enabled for Battery Level characte
 306:.\Generated_Source\PSoC4/BLE_bas.c ****                 if(CYBLE_IS_NOTIFICATION_SUPPORTED(cyBle_bass[locServiceIndex].batteryLevelHandle))
 498              		.loc 1 306 0
 499 0038 3B1C     		mov	r3, r7
 500 003a 1733     		add	r3, r3, #23
 501 003c 1B78     		ldrb	r3, [r3]
 502 003e 3C4A     		ldr	r2, .L37+4
 503 0040 DB00     		lsl	r3, r3, #3
 504 0042 D318     		add	r3, r2, r3
 505 0044 5B88     		ldrh	r3, [r3, #2]
 506 0046 5A1E     		sub	r2, r3, #1
 507 0048 3A49     		ldr	r1, .L37+8
 508 004a 131C     		mov	r3, r2
 509 004c 9B00     		lsl	r3, r3, #2
 510 004e 9B18     		add	r3, r3, r2
 511 0050 9B00     		lsl	r3, r3, #2
 512 0052 CB18     		add	r3, r1, r3
 513 0054 5A68     		ldr	r2, [r3, #4]
 514 0056 8023     		mov	r3, #128
 515 0058 5B01     		lsl	r3, r3, #5
 516 005a 1340     		and	r3, r2
 517 005c 45D0     		beq	.L31
 307:.\Generated_Source\PSoC4/BLE_bas.c ****                 {
 308:.\Generated_Source\PSoC4/BLE_bas.c ****                     gattErr = CyBle_GattsWriteAttributeValue(&eventParam->handleValPair, 0u, 
 518              		.loc 1 308 0
 519 005e 7B68     		ldr	r3, [r7, #4]
 520 0060 1A1D     		add	r2, r3, #4
 521 0062 7B68     		ldr	r3, [r7, #4]
 522 0064 3C1C     		mov	r4, r7
 523 0066 1634     		add	r4, r4, #22
 524 0068 101C     		mov	r0, r2
 525 006a 0021     		mov	r1, #0
 526 006c 1A1C     		mov	r2, r3
 527 006e 4023     		mov	r3, #64
 528 0070 FFF7FEFF 		bl	CyBle_GattsWriteAttributeValue
 529 0074 031C     		mov	r3, r0
 530 0076 2370     		strb	r3, [r4]
 309:.\Generated_Source\PSoC4/BLE_bas.c ****                         &eventParam->connHandle, CYBLE_GATT_DB_PEER_INITIATED);
 310:.\Generated_Source\PSoC4/BLE_bas.c ****                     if(CYBLE_GATT_ERR_NONE == gattErr)
 531              		.loc 1 310 0
 532 0078 3B1C     		mov	r3, r7
 533 007a 1633     		add	r3, r3, #22
 534 007c 1B78     		ldrb	r3, [r3]
 535 007e 002B     		cmp	r3, #0
 536 0080 37D1     		bne	.L34
 311:.\Generated_Source\PSoC4/BLE_bas.c ****                     {
 312:.\Generated_Source\PSoC4/BLE_bas.c ****                         locCharIndex.connHandle = eventParam->connHandle;
 537              		.loc 1 312 0
 538 0082 3B1C     		mov	r3, r7
 539 0084 0C33     		add	r3, r3, #12
 540 0086 7A68     		ldr	r2, [r7, #4]
ARM GAS  C:\Users\wzh\AppData\Local\Temp\ccURPXkh.s 			page 16


 541 0088 1288     		ldrh	r2, [r2]
 542 008a 1A80     		strh	r2, [r3]
 313:.\Generated_Source\PSoC4/BLE_bas.c ****                         locCharIndex.serviceIndex = locServiceIndex;
 543              		.loc 1 313 0
 544 008c 3B1C     		mov	r3, r7
 545 008e 0C33     		add	r3, r3, #12
 546 0090 3A1C     		mov	r2, r7
 547 0092 1732     		add	r2, r2, #23
 548 0094 1278     		ldrb	r2, [r2]
 549 0096 9A70     		strb	r2, [r3, #2]
 314:.\Generated_Source\PSoC4/BLE_bas.c ****                         locCharIndex.charIndex = CYBLE_BAS_BATTERY_LEVEL;
 550              		.loc 1 314 0
 551 0098 3B1C     		mov	r3, r7
 552 009a 0C33     		add	r3, r3, #12
 553 009c 0022     		mov	r2, #0
 554 009e DA70     		strb	r2, [r3, #3]
 315:.\Generated_Source\PSoC4/BLE_bas.c ****                         locCharIndex.value = NULL;
 555              		.loc 1 315 0
 556 00a0 3B1C     		mov	r3, r7
 557 00a2 0C33     		add	r3, r3, #12
 558 00a4 0022     		mov	r2, #0
 559 00a6 5A60     		str	r2, [r3, #4]
 316:.\Generated_Source\PSoC4/BLE_bas.c ****                         
 317:.\Generated_Source\PSoC4/BLE_bas.c ****                         if(CYBLE_IS_NOTIFICATION_ENABLED_IN_PTR(eventParam->handleValPair.value.val
 560              		.loc 1 317 0
 561 00a8 7B68     		ldr	r3, [r7, #4]
 562 00aa 5B68     		ldr	r3, [r3, #4]
 563 00ac 181C     		mov	r0, r3
 564 00ae FFF7FEFF 		bl	CyBle_Get16ByPtr
 565 00b2 031C     		mov	r3, r0
 566 00b4 1A1C     		mov	r2, r3
 567 00b6 0123     		mov	r3, #1
 568 00b8 1340     		and	r3, r2
 569 00ba 9BB2     		uxth	r3, r3
 570 00bc 002B     		cmp	r3, #0
 571 00be 09D0     		beq	.L33
 318:.\Generated_Source\PSoC4/BLE_bas.c ****                         {
 319:.\Generated_Source\PSoC4/BLE_bas.c ****                             CyBle_BasApplCallback((uint32)CYBLE_EVT_BASS_NOTIFICATION_ENABLED, &loc
 572              		.loc 1 319 0
 573 00c0 1A4B     		ldr	r3, .L37
 574 00c2 1B68     		ldr	r3, [r3]
 575 00c4 8D22     		mov	r2, #141
 576 00c6 5100     		lsl	r1, r2, #1
 577 00c8 3A1C     		mov	r2, r7
 578 00ca 0C32     		add	r2, r2, #12
 579 00cc 081C     		mov	r0, r1
 580 00ce 111C     		mov	r1, r2
 581 00d0 9847     		blx	r3
 582 00d2 0EE0     		b	.L34
 583              	.L33:
 320:.\Generated_Source\PSoC4/BLE_bas.c ****                         }
 321:.\Generated_Source\PSoC4/BLE_bas.c ****                         else
 322:.\Generated_Source\PSoC4/BLE_bas.c ****                         {
 323:.\Generated_Source\PSoC4/BLE_bas.c ****                             CyBle_BasApplCallback((uint32)CYBLE_EVT_BASS_NOTIFICATION_DISABLED, &lo
 584              		.loc 1 323 0
 585 00d4 154B     		ldr	r3, .L37
 586 00d6 1B68     		ldr	r3, [r3]
ARM GAS  C:\Users\wzh\AppData\Local\Temp\ccURPXkh.s 			page 17


 587 00d8 1C22     		mov	r2, #28
 588 00da 111C     		mov	r1, r2
 589 00dc FF31     		add	r1, r1, #255
 590 00de 3A1C     		mov	r2, r7
 591 00e0 0C32     		add	r2, r2, #12
 592 00e2 081C     		mov	r0, r1
 593 00e4 111C     		mov	r1, r2
 594 00e6 9847     		blx	r3
 595 00e8 03E0     		b	.L34
 596              	.L31:
 324:.\Generated_Source\PSoC4/BLE_bas.c ****                         }
 325:.\Generated_Source\PSoC4/BLE_bas.c ****                     #if((CYBLE_GAP_ROLE_PERIPHERAL || CYBLE_GAP_ROLE_CENTRAL) && \
 326:.\Generated_Source\PSoC4/BLE_bas.c ****                         (CYBLE_BONDING_REQUIREMENT == CYBLE_BONDING_YES))
 327:.\Generated_Source\PSoC4/BLE_bas.c ****                         /* Set flag to store bonding data to flash */
 328:.\Generated_Source\PSoC4/BLE_bas.c ****                         cyBle_pendingFlashWrite |= CYBLE_PENDING_CCCD_FLASH_WRITE_BIT;
 329:.\Generated_Source\PSoC4/BLE_bas.c ****                     #endif /* (CYBLE_BONDING_REQUIREMENT == CYBLE_BONDING_YES) */
 330:.\Generated_Source\PSoC4/BLE_bas.c ****                     }
 331:.\Generated_Source\PSoC4/BLE_bas.c ****                 }
 332:.\Generated_Source\PSoC4/BLE_bas.c ****                 else
 333:.\Generated_Source\PSoC4/BLE_bas.c ****                 {
 334:.\Generated_Source\PSoC4/BLE_bas.c ****                     gattErr = CYBLE_GATT_ERR_REQUEST_NOT_SUPPORTED;
 597              		.loc 1 334 0
 598 00ea 3B1C     		mov	r3, r7
 599 00ec 1633     		add	r3, r3, #22
 600 00ee 0622     		mov	r2, #6
 601 00f0 1A70     		strb	r2, [r3]
 602              	.L34:
 335:.\Generated_Source\PSoC4/BLE_bas.c ****                 }
 336:.\Generated_Source\PSoC4/BLE_bas.c ****                 cyBle_eventHandlerFlag &= (uint8)~CYBLE_CALLBACK;
 603              		.loc 1 336 0
 604 00f2 114B     		ldr	r3, .L37+12
 605 00f4 1B78     		ldrb	r3, [r3]
 606 00f6 DBB2     		uxtb	r3, r3
 607 00f8 0122     		mov	r2, #1
 608 00fa 9343     		bic	r3, r2
 609 00fc DAB2     		uxtb	r2, r3
 610 00fe 0E4B     		ldr	r3, .L37+12
 611 0100 1A70     		strb	r2, [r3]
 337:.\Generated_Source\PSoC4/BLE_bas.c ****                 break;
 612              		.loc 1 337 0
 613 0102 0CE0     		b	.L29
 614              	.L30:
 338:.\Generated_Source\PSoC4/BLE_bas.c ****             }
 339:.\Generated_Source\PSoC4/BLE_bas.c ****         locServiceIndex++;
 615              		.loc 1 339 0
 616 0104 3B1C     		mov	r3, r7
 617 0106 1733     		add	r3, r3, #23
 618 0108 1A78     		ldrb	r2, [r3]
 619 010a 3B1C     		mov	r3, r7
 620 010c 1733     		add	r3, r3, #23
 621 010e 0132     		add	r2, r2, #1
 622 0110 1A70     		strb	r2, [r3]
 340:.\Generated_Source\PSoC4/BLE_bas.c ****         }while(locServiceIndex < CYBLE_BASS_SERVICE_COUNT);
 623              		.loc 1 340 0
 624 0112 3B1C     		mov	r3, r7
 625 0114 1733     		add	r3, r3, #23
 626 0116 1B78     		ldrb	r3, [r3]
ARM GAS  C:\Users\wzh\AppData\Local\Temp\ccURPXkh.s 			page 18


 627 0118 012B     		cmp	r3, #1
 628 011a 00D8     		bhi	.LCB536
 629 011c 81E7     		b	.L35	@long jump
 630              	.LCB536:
 631              	.L29:
 341:.\Generated_Source\PSoC4/BLE_bas.c ****     }
 342:.\Generated_Source\PSoC4/BLE_bas.c ****     return (gattErr);
 632              		.loc 1 342 0
 633 011e 3B1C     		mov	r3, r7
 634 0120 1633     		add	r3, r3, #22
 635 0122 1B78     		ldrb	r3, [r3]
 343:.\Generated_Source\PSoC4/BLE_bas.c **** }
 636              		.loc 1 343 0
 637 0124 181C     		mov	r0, r3
 638 0126 BD46     		mov	sp, r7
 639 0128 07B0     		add	sp, sp, #28
 640              		@ sp needed
 641 012a 90BD     		pop	{r4, r7, pc}
 642              	.L38:
 643              		.align	2
 644              	.L37:
 645 012c 00000000 		.word	CyBle_BasApplCallback
 646 0130 00000000 		.word	cyBle_bass
 647 0134 00000000 		.word	cyBle_gattDB
 648 0138 00000000 		.word	cyBle_eventHandlerFlag
 649              		.cfi_endproc
 650              	.LFE7:
 651              		.size	CyBle_BassWriteEventHandler, .-CyBle_BassWriteEventHandler
 652              		.section	.text.CyBle_BassSendNotification,"ax",%progbits
 653              		.align	2
 654              		.global	CyBle_BassSendNotification
 655              		.code	16
 656              		.thumb_func
 657              		.type	CyBle_BassSendNotification, %function
 658              	CyBle_BassSendNotification:
 659              	.LFB8:
 344:.\Generated_Source\PSoC4/BLE_bas.c **** 
 345:.\Generated_Source\PSoC4/BLE_bas.c **** 
 346:.\Generated_Source\PSoC4/BLE_bas.c **** /******************************************************************************
 347:.\Generated_Source\PSoC4/BLE_bas.c **** ##Function Name: CyBle_BassSendNotification
 348:.\Generated_Source\PSoC4/BLE_bas.c **** *******************************************************************************
 349:.\Generated_Source\PSoC4/BLE_bas.c **** 
 350:.\Generated_Source\PSoC4/BLE_bas.c **** Summary:
 351:.\Generated_Source\PSoC4/BLE_bas.c ****  This function updates the value of the Battery Level characteristic in the 
 352:.\Generated_Source\PSoC4/BLE_bas.c ****  GATT database. If the client has configured a notification on the Battery
 353:.\Generated_Source\PSoC4/BLE_bas.c ****  Level characteristic, the function additionally sends this value using a 
 354:.\Generated_Source\PSoC4/BLE_bas.c ****  GATT Notification message.
 355:.\Generated_Source\PSoC4/BLE_bas.c **** 
 356:.\Generated_Source\PSoC4/BLE_bas.c ****  The CYBLE_EVT_BASC_NOTIFICATION event is received by the peer device, on 
 357:.\Generated_Source\PSoC4/BLE_bas.c ****  invoking this function.
 358:.\Generated_Source\PSoC4/BLE_bas.c **** 
 359:.\Generated_Source\PSoC4/BLE_bas.c **** Parameters:
 360:.\Generated_Source\PSoC4/BLE_bas.c ****  connHandle: The BLE peer device connection handle
 361:.\Generated_Source\PSoC4/BLE_bas.c ****  serviceIndex: The index of the service instance. e.g. If two Battery Services
 362:.\Generated_Source\PSoC4/BLE_bas.c ****                 are supported in your design, then first service will be 
 363:.\Generated_Source\PSoC4/BLE_bas.c ****                 identified by serviceIndex of 0 and the second by 
 364:.\Generated_Source\PSoC4/BLE_bas.c ****                 serviceIndex of 1.
ARM GAS  C:\Users\wzh\AppData\Local\Temp\ccURPXkh.s 			page 19


 365:.\Generated_Source\PSoC4/BLE_bas.c ****  charIndex: The index of a service characteristic of type 
 366:.\Generated_Source\PSoC4/BLE_bas.c ****              CYBLE_BAS_CHAR_INDEX_T.
 367:.\Generated_Source\PSoC4/BLE_bas.c ****  attrSize: The size of the characteristic value attribute. A battery level
 368:.\Generated_Source\PSoC4/BLE_bas.c ****             characteristic has 1 byte length.
 369:.\Generated_Source\PSoC4/BLE_bas.c ****  *attrValue: The pointer to the characteristic value data that should be
 370:.\Generated_Source\PSoC4/BLE_bas.c ****               sent to the Client device.
 371:.\Generated_Source\PSoC4/BLE_bas.c **** 
 372:.\Generated_Source\PSoC4/BLE_bas.c **** Return:
 373:.\Generated_Source\PSoC4/BLE_bas.c ****  Return value is of type CYBLE_API_RESULT_T.
 374:.\Generated_Source\PSoC4/BLE_bas.c ****   * CYBLE_ERROR_OK - The request handled successfully
 375:.\Generated_Source\PSoC4/BLE_bas.c ****   * CYBLE_ERROR_INVALID_PARAMETER - Validation of the input parameter failed
 376:.\Generated_Source\PSoC4/BLE_bas.c ****   * CYBLE_ERROR_INVALID_OPERATION - This operation is not permitted
 377:.\Generated_Source\PSoC4/BLE_bas.c ****   * CYBLE_ERROR_INVALID_STATE - Connection with the client is not established
 378:.\Generated_Source\PSoC4/BLE_bas.c ****   * CYBLE_ERROR_MEMORY_ALLOCATION_FAILED - Memory allocation failed. 
 379:.\Generated_Source\PSoC4/BLE_bas.c ****   * CYBLE_ERROR_NTF_DISABLED - Notification is not enabled by the client.
 380:.\Generated_Source\PSoC4/BLE_bas.c **** 
 381:.\Generated_Source\PSoC4/BLE_bas.c **** ******************************************************************************/
 382:.\Generated_Source\PSoC4/BLE_bas.c **** CYBLE_API_RESULT_T CyBle_BassSendNotification(CYBLE_CONN_HANDLE_T connHandle,
 383:.\Generated_Source\PSoC4/BLE_bas.c ****     uint8 serviceIndex, CYBLE_BAS_CHAR_INDEX_T charIndex, uint8 attrSize, uint8 *attrValue)
 384:.\Generated_Source\PSoC4/BLE_bas.c **** {
 660              		.loc 1 384 0
 661              		.cfi_startproc
 662 0000 90B5     		push	{r4, r7, lr}
 663              		.cfi_def_cfa_offset 12
 664              		.cfi_offset 4, -12
 665              		.cfi_offset 7, -8
 666              		.cfi_offset 14, -4
 667 0002 87B0     		sub	sp, sp, #28
 668              		.cfi_def_cfa_offset 40
 669 0004 00AF     		add	r7, sp, #0
 670              		.cfi_def_cfa_register 7
 671 0006 3C1D     		add	r4, r7, #4
 672 0008 2080     		strh	r0, [r4]
 673 000a 081C     		mov	r0, r1
 674 000c 111C     		mov	r1, r2
 675 000e 1A1C     		mov	r2, r3
 676 0010 FB1C     		add	r3, r7, #3
 677 0012 1870     		strb	r0, [r3]
 678 0014 BB1C     		add	r3, r7, #2
 679 0016 1970     		strb	r1, [r3]
 680 0018 7B1C     		add	r3, r7, #1
 681 001a 1A70     		strb	r2, [r3]
 385:.\Generated_Source\PSoC4/BLE_bas.c ****     CYBLE_API_RESULT_T apiResult;
 386:.\Generated_Source\PSoC4/BLE_bas.c **** 
 387:.\Generated_Source\PSoC4/BLE_bas.c ****     /* Store new data in database */
 388:.\Generated_Source\PSoC4/BLE_bas.c ****     apiResult = CyBle_BassSetCharacteristicValue(serviceIndex, charIndex, attrSize, attrValue);
 682              		.loc 1 388 0
 683 001c 3C1C     		mov	r4, r7
 684 001e 1634     		add	r4, r4, #22
 685 0020 FB1C     		add	r3, r7, #3
 686 0022 1878     		ldrb	r0, [r3]
 687 0024 BB1C     		add	r3, r7, #2
 688 0026 1978     		ldrb	r1, [r3]
 689 0028 7B1C     		add	r3, r7, #1
 690 002a 1A78     		ldrb	r2, [r3]
 691 002c BB6A     		ldr	r3, [r7, #40]
 692 002e FFF7FEFF 		bl	CyBle_BassSetCharacteristicValue
ARM GAS  C:\Users\wzh\AppData\Local\Temp\ccURPXkh.s 			page 20


 693 0032 031C     		mov	r3, r0
 694 0034 2380     		strh	r3, [r4]
 389:.\Generated_Source\PSoC4/BLE_bas.c ****     
 390:.\Generated_Source\PSoC4/BLE_bas.c ****     if(CYBLE_ERROR_OK == apiResult)  
 695              		.loc 1 390 0
 696 0036 3B1C     		mov	r3, r7
 697 0038 1633     		add	r3, r3, #22
 698 003a 1B88     		ldrh	r3, [r3]
 699 003c 002B     		cmp	r3, #0
 700 003e 4ED1     		bne	.L40
 391:.\Generated_Source\PSoC4/BLE_bas.c ****     {
 392:.\Generated_Source\PSoC4/BLE_bas.c ****         /* Send Notification if it is enabled and connected */
 393:.\Generated_Source\PSoC4/BLE_bas.c ****         if(CYBLE_STATE_CONNECTED != CyBle_GetState())
 701              		.loc 1 393 0
 702 0040 2A4B     		ldr	r3, .L45
 703 0042 1B78     		ldrb	r3, [r3]
 704 0044 022B     		cmp	r3, #2
 705 0046 05D0     		beq	.L41
 394:.\Generated_Source\PSoC4/BLE_bas.c ****         {
 395:.\Generated_Source\PSoC4/BLE_bas.c ****             apiResult = CYBLE_ERROR_INVALID_STATE;
 706              		.loc 1 395 0
 707 0048 3B1C     		mov	r3, r7
 708 004a 1633     		add	r3, r3, #22
 709 004c 8322     		mov	r2, #131
 710 004e 5200     		lsl	r2, r2, #1
 711 0050 1A80     		strh	r2, [r3]
 712 0052 44E0     		b	.L40
 713              	.L41:
 396:.\Generated_Source\PSoC4/BLE_bas.c ****         }
 397:.\Generated_Source\PSoC4/BLE_bas.c ****         else if((cyBle_bass[serviceIndex].cccdHandle == CYBLE_GATT_INVALID_ATTR_HANDLE_VALUE)
 714              		.loc 1 397 0
 715 0054 FB1C     		add	r3, r7, #3
 716 0056 1B78     		ldrb	r3, [r3]
 717 0058 254A     		ldr	r2, .L45+4
 718 005a DB00     		lsl	r3, r3, #3
 719 005c D318     		add	r3, r2, r3
 720 005e DB88     		ldrh	r3, [r3, #6]
 721 0060 002B     		cmp	r3, #0
 722 0062 18D0     		beq	.L42
 398:.\Generated_Source\PSoC4/BLE_bas.c ****             || (!CYBLE_IS_NOTIFICATION_ENABLED(cyBle_bass[serviceIndex].cccdHandle)))
 723              		.loc 1 398 0
 724 0064 FB1C     		add	r3, r7, #3
 725 0066 1B78     		ldrb	r3, [r3]
 726 0068 214A     		ldr	r2, .L45+4
 727 006a DB00     		lsl	r3, r3, #3
 728 006c D318     		add	r3, r2, r3
 729 006e DB88     		ldrh	r3, [r3, #6]
 730 0070 5A1E     		sub	r2, r3, #1
 731 0072 2049     		ldr	r1, .L45+8
 732 0074 131C     		mov	r3, r2
 733 0076 9B00     		lsl	r3, r3, #2
 734 0078 9B18     		add	r3, r3, r2
 735 007a 9B00     		lsl	r3, r3, #2
 736 007c CB18     		add	r3, r1, r3
 737 007e 0833     		add	r3, r3, #8
 738 0080 9B68     		ldr	r3, [r3, #8]
 739 0082 181C     		mov	r0, r3
ARM GAS  C:\Users\wzh\AppData\Local\Temp\ccURPXkh.s 			page 21


 740 0084 FFF7FEFF 		bl	CyBle_Get16ByPtr
 741 0088 031C     		mov	r3, r0
 742 008a 1A1C     		mov	r2, r3
 743 008c 0123     		mov	r3, #1
 744 008e 1340     		and	r3, r2
 745 0090 9BB2     		uxth	r3, r3
 746 0092 002B     		cmp	r3, #0
 747 0094 05D1     		bne	.L43
 748              	.L42:
 399:.\Generated_Source\PSoC4/BLE_bas.c ****         {
 400:.\Generated_Source\PSoC4/BLE_bas.c ****             apiResult = CYBLE_ERROR_NTF_DISABLED;
 749              		.loc 1 400 0
 750 0096 3B1C     		mov	r3, r7
 751 0098 1633     		add	r3, r3, #22
 752 009a 0422     		mov	r2, #4
 753 009c FF32     		add	r2, r2, #255
 754 009e 1A80     		strh	r2, [r3]
 755 00a0 1DE0     		b	.L40
 756              	.L43:
 757              	.LBB2:
 401:.\Generated_Source\PSoC4/BLE_bas.c ****         }
 402:.\Generated_Source\PSoC4/BLE_bas.c ****         else
 403:.\Generated_Source\PSoC4/BLE_bas.c ****         {
 404:.\Generated_Source\PSoC4/BLE_bas.c ****             CYBLE_GATTS_HANDLE_VALUE_NTF_T ntfReqParam;
 405:.\Generated_Source\PSoC4/BLE_bas.c ****             
 406:.\Generated_Source\PSoC4/BLE_bas.c ****             /* Fill all fields of write request structure ... */
 407:.\Generated_Source\PSoC4/BLE_bas.c ****             ntfReqParam.attrHandle = cyBle_bass[serviceIndex].batteryLevelHandle;
 758              		.loc 1 407 0
 759 00a2 FB1C     		add	r3, r7, #3
 760 00a4 1B78     		ldrb	r3, [r3]
 761 00a6 124A     		ldr	r2, .L45+4
 762 00a8 DB00     		lsl	r3, r3, #3
 763 00aa D318     		add	r3, r2, r3
 764 00ac 5A88     		ldrh	r2, [r3, #2]
 765 00ae 3B1C     		mov	r3, r7
 766 00b0 0833     		add	r3, r3, #8
 767 00b2 1A81     		strh	r2, [r3, #8]
 408:.\Generated_Source\PSoC4/BLE_bas.c ****             ntfReqParam.value.val = attrValue;
 768              		.loc 1 408 0
 769 00b4 3B1C     		mov	r3, r7
 770 00b6 0833     		add	r3, r3, #8
 771 00b8 BA6A     		ldr	r2, [r7, #40]
 772 00ba 1A60     		str	r2, [r3]
 409:.\Generated_Source\PSoC4/BLE_bas.c ****             ntfReqParam.value.len = attrSize;
 773              		.loc 1 409 0
 774 00bc 7B1C     		add	r3, r7, #1
 775 00be 1B78     		ldrb	r3, [r3]
 776 00c0 9AB2     		uxth	r2, r3
 777 00c2 3B1C     		mov	r3, r7
 778 00c4 0833     		add	r3, r3, #8
 779 00c6 9A80     		strh	r2, [r3, #4]
 410:.\Generated_Source\PSoC4/BLE_bas.c ****             
 411:.\Generated_Source\PSoC4/BLE_bas.c ****             /* Send notification to client using previously filled structure */
 412:.\Generated_Source\PSoC4/BLE_bas.c ****             apiResult = CyBle_GattsNotification(connHandle, &ntfReqParam);
 780              		.loc 1 412 0
 781 00c8 3C1C     		mov	r4, r7
 782 00ca 1634     		add	r4, r4, #22
ARM GAS  C:\Users\wzh\AppData\Local\Temp\ccURPXkh.s 			page 22


 783 00cc 3B1D     		add	r3, r7, #4
 784 00ce 3A1C     		mov	r2, r7
 785 00d0 0832     		add	r2, r2, #8
 786 00d2 1868     		ldr	r0, [r3]
 787 00d4 111C     		mov	r1, r2
 788 00d6 FFF7FEFF 		bl	CyBle_GattsNotification
 789 00da 031C     		mov	r3, r0
 790 00dc 2380     		strh	r3, [r4]
 791              	.L40:
 792              	.LBE2:
 413:.\Generated_Source\PSoC4/BLE_bas.c ****         }
 414:.\Generated_Source\PSoC4/BLE_bas.c ****     }
 415:.\Generated_Source\PSoC4/BLE_bas.c ****     
 416:.\Generated_Source\PSoC4/BLE_bas.c ****     return (apiResult);
 793              		.loc 1 416 0
 794 00de 3B1C     		mov	r3, r7
 795 00e0 1633     		add	r3, r3, #22
 796 00e2 1B88     		ldrh	r3, [r3]
 417:.\Generated_Source\PSoC4/BLE_bas.c **** }
 797              		.loc 1 417 0
 798 00e4 181C     		mov	r0, r3
 799 00e6 BD46     		mov	sp, r7
 800 00e8 07B0     		add	sp, sp, #28
 801              		@ sp needed
 802 00ea 90BD     		pop	{r4, r7, pc}
 803              	.L46:
 804              		.align	2
 805              	.L45:
 806 00ec 00000000 		.word	cyBle_state
 807 00f0 00000000 		.word	cyBle_bass
 808 00f4 00000000 		.word	cyBle_gattDB
 809              		.cfi_endproc
 810              	.LFE8:
 811              		.size	CyBle_BassSendNotification, .-CyBle_BassSendNotification
 812              		.text
 813              	.Letext0:
 814              		.file 2 ".\\Generated_Source\\PSoC4\\cytypes.h"
 815              		.file 3 ".\\Generated_Source\\PSoC4\\BLE_Stack.h"
 816              		.file 4 ".\\Generated_Source\\PSoC4\\BLE_StackGatt.h"
 817              		.file 5 ".\\Generated_Source\\PSoC4\\BLE_StackGattServer.h"
 818              		.file 6 ".\\Generated_Source\\PSoC4\\BLE_StackGattDb.h"
 819              		.file 7 ".\\Generated_Source\\PSoC4\\BLE.h"
 820              		.file 8 ".\\Generated_Source\\PSoC4\\BLE_bas.h"
 821              		.file 9 ".\\Generated_Source\\PSoC4\\BLE_dis.h"
 822              		.file 10 ".\\Generated_Source\\PSoC4\\BLE_eventHandler.h"
 823              		.file 11 ".\\Generated_Source\\PSoC4\\BLE_gatt.h"