ARM GAS  C:\Users\wzh\AppData\Local\Temp\cc8gjj2g.s 			page 1


   1              		.cpu cortex-m0
   2              		.fpu softvfp
   3              		.eabi_attribute 20, 1
   4              		.eabi_attribute 21, 1
   5              		.eabi_attribute 23, 3
   6              		.eabi_attribute 24, 1
   7              		.eabi_attribute 25, 1
   8              		.eabi_attribute 26, 1
   9              		.eabi_attribute 30, 6
  10              		.eabi_attribute 34, 0
  11              		.eabi_attribute 18, 4
  12              		.code	16
  13              		.file	"main.c"
  14              		.text
  15              	.Ltext0:
  16              		.cfi_sections	.debug_frame
  17              		.global	Ledtype
  18              		.section	.rodata
  19              		.align	2
  20              	.LC0:
  21 0000 3000     		.ascii	"0\000"
  22 0002 0000     		.align	2
  23              	.LC1:
  24 0004 67726565 		.ascii	"green led\000"
  24      6E206C65 
  24      6400
  25 000e 0000     		.align	2
  26              	.LC2:
  27 0010 72656420 		.ascii	"red and ir led\000"
  27      616E6420 
  27      6972206C 
  27      656400
  28 001f 00       		.align	2
  29              	.LC3:
  30 0020 6E697220 		.ascii	"nir led\000"
  30      6C656400 
  31              		.align	2
  32              	.LC4:
  33 0028 616C6C00 		.ascii	"all\000"
  34              		.data
  35              		.align	2
  36              		.type	Ledtype, %object
  37              		.size	Ledtype, 20
  38              	Ledtype:
  39 0000 00000000 		.word	.LC0
  40 0004 04000000 		.word	.LC1
  41 0008 10000000 		.word	.LC2
  42 000c 20000000 		.word	.LC3
  43 0010 28000000 		.word	.LC4
  44              		.comm	g_config_cmd,16,4
  45              		.global	g_pconf_cmd
  46              		.align	2
  47              		.type	g_pconf_cmd, %object
  48              		.size	g_pconf_cmd, 4
  49              	g_pconf_cmd:
  50 0014 00000000 		.word	g_config_cmd
  51              		.comm	g_adcResult,2,2
ARM GAS  C:\Users\wzh\AppData\Local\Temp\cc8gjj2g.s 			page 2


  52              		.section	.rodata
  53              		.align	2
  54              	.LC6:
  55 002c 25640D0A 		.ascii	"%d\015\012\000"
  55      00
  56              		.section	.text.Data_Acquire_and_Print,"ax",%progbits
  57              		.align	2
  58              		.global	Data_Acquire_and_Print
  59              		.code	16
  60              		.thumb_func
  61              		.type	Data_Acquire_and_Print, %function
  62              	Data_Acquire_and_Print:
  63              	.LFB35:
  64              		.file 1 ".\\main.c"
   1:.\main.c      ****  /*******************************************************************************
   2:.\main.c      **** * File: main.c
   3:.\main.c      **** *
   4:.\main.c      **** * Version : 1.1
   5:.\main.c      **** *
   6:.\main.c      **** * Description: 
   7:.\main.c      **** *   This is source code for the PSoC4 Opamp example project. 
   8:.\main.c      **** *
   9:.\main.c      **** ********************************************************************************
  10:.\main.c      **** * Copyright 2013-2014, Cypress Semiconductor Corporation. All rights reserved.
  11:.\main.c      **** * This software is owned by Cypress Semiconductor Corporation and is protected
  12:.\main.c      **** * by and subject to worldwide patent and copyright laws and treaties.
  13:.\main.c      **** * Therefore, you may use this software only as provided in the license agreement
  14:.\main.c      **** * accompanying the software package from which you obtained this software.
  15:.\main.c      **** * CYPRESS AND ITS SUPPLIERS MAKE NO WARRANTY OF ANY KIND, EXPRESS OR IMPLIED,
  16:.\main.c      **** * WITH REGARD TO THIS SOFTWARE, INCLUDING, BUT NOT LIMITED TO, NONINFRINGEMENT,
  17:.\main.c      **** * IMPLIED WARRANTIES OF MERCHANTABILITY AND FITNESS FOR A PARTICULAR PURPOSE.
  18:.\main.c      **** *******************************************************************************/
  19:.\main.c      **** 
  20:.\main.c      **** #include <device.h>
  21:.\main.c      **** #include <stdio.h>
  22:.\main.c      **** #include "config_cmd.h"
  23:.\main.c      **** 
  24:.\main.c      **** #define ADC_IN_CHANNEL         (0x00u)
  25:.\main.c      **** uint16  g_adcResult;
  26:.\main.c      **** 
  27:.\main.c      **** 
  28:.\main.c      **** void Data_Acquire_and_Print(void)
  29:.\main.c      **** {
  65              		.loc 1 29 0
  66              		.cfi_startproc
  67 0000 80B5     		push	{r7, lr}
  68              		.cfi_def_cfa_offset 8
  69              		.cfi_offset 7, -8
  70              		.cfi_offset 14, -4
  71 0002 00AF     		add	r7, sp, #0
  72              		.cfi_def_cfa_register 7
  30:.\main.c      ****    // do
  31:.\main.c      ****    // {
  32:.\main.c      ****    // uint i=0;
  33:.\main.c      ****        ADC_SAR_StartConvert();
  73              		.loc 1 33 0
  74 0004 FFF7FEFF 		bl	ADC_SAR_StartConvert
ARM GAS  C:\Users\wzh\AppData\Local\Temp\cc8gjj2g.s 			page 3


  34:.\main.c      ****        ADC_SAR_IsEndConversion(ADC_SAR_WAIT_FOR_RESULT);
  75              		.loc 1 34 0
  76 0008 0220     		mov	r0, #2
  77 000a FFF7FEFF 		bl	ADC_SAR_IsEndConversion
  35:.\main.c      ****        g_adcResult = ADC_SAR_GetResult16(ADC_IN_CHANNEL);
  78              		.loc 1 35 0
  79 000e 0020     		mov	r0, #0
  80 0010 FFF7FEFF 		bl	ADC_SAR_GetResult16
  81 0014 031C     		mov	r3, r0
  82 0016 9AB2     		uxth	r2, r3
  83 0018 054B     		ldr	r3, .L2
  84 001a 1A80     		strh	r2, [r3]
  36:.\main.c      ****        printf("%d\r\n",g_adcResult);
  85              		.loc 1 36 0
  86 001c 044B     		ldr	r3, .L2
  87 001e 1B88     		ldrh	r3, [r3]
  88 0020 044A     		ldr	r2, .L2+4
  89 0022 101C     		mov	r0, r2
  90 0024 191C     		mov	r1, r3
  91 0026 FFF7FEFF 		bl	printf
  37:.\main.c      ****     //  for(i=244;i>0;i--);
  38:.\main.c      ****    //  }while(g_config_cmd.flag==0);
  39:.\main.c      **** }
  92              		.loc 1 39 0
  93 002a BD46     		mov	sp, r7
  94              		@ sp needed
  95 002c 80BD     		pop	{r7, pc}
  96              	.L3:
  97 002e C046     		.align	2
  98              	.L2:
  99 0030 00000000 		.word	g_adcResult
 100 0034 2C000000 		.word	.LC6
 101              		.cfi_endproc
 102              	.LFE35:
 103              		.size	Data_Acquire_and_Print, .-Data_Acquire_and_Print
 104              		.section	.text.UartRX_Interrupt,"ax",%progbits
 105              		.align	2
 106              		.global	UartRX_Interrupt
 107              		.code	16
 108              		.thumb_func
 109              		.type	UartRX_Interrupt, %function
 110              	UartRX_Interrupt:
 111              	.LFB36:
  40:.\main.c      **** 
  41:.\main.c      **** 
  42:.\main.c      **** void UartRX_Interrupt(void)
  43:.\main.c      **** {
 112              		.loc 1 43 0
 113              		.cfi_startproc
 114 0000 98B5     		push	{r3, r4, r7, lr}
 115              		.cfi_def_cfa_offset 16
 116              		.cfi_offset 3, -16
 117              		.cfi_offset 4, -12
 118              		.cfi_offset 7, -8
 119              		.cfi_offset 14, -4
 120 0002 00AF     		add	r7, sp, #0
 121              		.cfi_def_cfa_register 7
ARM GAS  C:\Users\wzh\AppData\Local\Temp\cc8gjj2g.s 			page 4


  44:.\main.c      ****     static uint8 *p;
  45:.\main.c      ****     switch(g_pconf_cmd->sta)
 122              		.loc 1 45 0
 123 0004 2E4B     		ldr	r3, .L15
 124 0006 1B68     		ldr	r3, [r3]
 125 0008 1B7B     		ldrb	r3, [r3, #12]
 126 000a 022B     		cmp	r3, #2
 127 000c 13D0     		beq	.L6
 128 000e 02DC     		bgt	.L7
 129 0010 012B     		cmp	r3, #1
 130 0012 05D0     		beq	.L8
  46:.\main.c      ****     {
  47:.\main.c      ****         case HEADER1_STA:
  48:.\main.c      ****              if(UART_DEB_SpiUartReadRxData()==CMD_HEADER1) g_pconf_cmd->sta=HEADER2_STA;
  49:.\main.c      ****              break;
  50:.\main.c      ****         case HEADER2_STA:
  51:.\main.c      ****              if(UART_DEB_SpiUartReadRxData()==CMD_HEADER2) g_pconf_cmd->sta=DATAREV_STA;
  52:.\main.c      ****              p=(uint8*)g_pconf_cmd;
  53:.\main.c      ****              break;
  54:.\main.c      ****         case DATAREV_STA:
  55:.\main.c      ****            //  *(uint8 *)(g_pconf_cmd+g_pconf_cmd->datanum)=UART_DEB_SpiUartReadRxData();
  56:.\main.c      ****              *p=UART_DEB_SpiUartReadRxData();
  57:.\main.c      ****              p++;
  58:.\main.c      ****              g_pconf_cmd->datanum++;
  59:.\main.c      ****              if(g_pconf_cmd->datanum == CMD_DATA_NUM) g_pconf_cmd->sta=CRC_STA; 
  60:.\main.c      ****             break;
  61:.\main.c      ****         case CRC_STA:
  62:.\main.c      ****              g_pconf_cmd->crc=UART_DEB_SpiUartReadRxData();
  63:.\main.c      ****              g_pconf_cmd->sta=HEADER1_STA;
  64:.\main.c      ****              g_pconf_cmd->datanum=0;
  65:.\main.c      ****              g_pconf_cmd->flag=1;
  66:.\main.c      ****             break;
  67:.\main.c      ****        default: break;
 131              		.loc 1 67 0
 132 0014 4EE0     		b	.L12
 133              	.L7:
  45:.\main.c      ****     switch(g_pconf_cmd->sta)
 134              		.loc 1 45 0
 135 0016 052B     		cmp	r3, #5
 136 0018 38D0     		beq	.L9
 137 001a 092B     		cmp	r3, #9
 138 001c 19D0     		beq	.L10
 139              		.loc 1 67 0
 140 001e 49E0     		b	.L12
 141              	.L8:
  48:.\main.c      ****              if(UART_DEB_SpiUartReadRxData()==CMD_HEADER1) g_pconf_cmd->sta=HEADER2_STA;
 142              		.loc 1 48 0
 143 0020 FFF7FEFF 		bl	UART_DEB_SpiUartReadRxData
 144 0024 031C     		mov	r3, r0
 145 0026 AA2B     		cmp	r3, #170
 146 0028 04D1     		bne	.L11
  48:.\main.c      ****              if(UART_DEB_SpiUartReadRxData()==CMD_HEADER1) g_pconf_cmd->sta=HEADER2_STA;
 147              		.loc 1 48 0 is_stmt 0 discriminator 1
 148 002a 254B     		ldr	r3, .L15
 149 002c 1B68     		ldr	r3, [r3]
 150 002e 0222     		mov	r2, #2
 151 0030 1A73     		strb	r2, [r3, #12]
ARM GAS  C:\Users\wzh\AppData\Local\Temp\cc8gjj2g.s 			page 5


  49:.\main.c      ****              break;
 152              		.loc 1 49 0 is_stmt 1 discriminator 1
 153 0032 3FE0     		b	.L12
 154              	.L11:
  49:.\main.c      ****              break;
 155              		.loc 1 49 0 is_stmt 0
 156 0034 3EE0     		b	.L12
 157              	.L6:
  51:.\main.c      ****              if(UART_DEB_SpiUartReadRxData()==CMD_HEADER2) g_pconf_cmd->sta=DATAREV_STA;
 158              		.loc 1 51 0 is_stmt 1
 159 0036 FFF7FEFF 		bl	UART_DEB_SpiUartReadRxData
 160 003a 031C     		mov	r3, r0
 161 003c EE2B     		cmp	r3, #238
 162 003e 03D1     		bne	.L13
  51:.\main.c      ****              if(UART_DEB_SpiUartReadRxData()==CMD_HEADER2) g_pconf_cmd->sta=DATAREV_STA;
 163              		.loc 1 51 0 is_stmt 0 discriminator 1
 164 0040 1F4B     		ldr	r3, .L15
 165 0042 1B68     		ldr	r3, [r3]
 166 0044 0922     		mov	r2, #9
 167 0046 1A73     		strb	r2, [r3, #12]
 168              	.L13:
  52:.\main.c      ****              p=(uint8*)g_pconf_cmd;
 169              		.loc 1 52 0 is_stmt 1
 170 0048 1D4B     		ldr	r3, .L15
 171 004a 1A68     		ldr	r2, [r3]
 172 004c 1D4B     		ldr	r3, .L15+4
 173 004e 1A60     		str	r2, [r3]
  53:.\main.c      ****              break;
 174              		.loc 1 53 0
 175 0050 30E0     		b	.L12
 176              	.L10:
  56:.\main.c      ****              *p=UART_DEB_SpiUartReadRxData();
 177              		.loc 1 56 0
 178 0052 1C4B     		ldr	r3, .L15+4
 179 0054 1C68     		ldr	r4, [r3]
 180 0056 FFF7FEFF 		bl	UART_DEB_SpiUartReadRxData
 181 005a 031C     		mov	r3, r0
 182 005c DBB2     		uxtb	r3, r3
 183 005e 2370     		strb	r3, [r4]
  57:.\main.c      ****              p++;
 184              		.loc 1 57 0
 185 0060 184B     		ldr	r3, .L15+4
 186 0062 1B68     		ldr	r3, [r3]
 187 0064 5A1C     		add	r2, r3, #1
 188 0066 174B     		ldr	r3, .L15+4
 189 0068 1A60     		str	r2, [r3]
  58:.\main.c      ****              g_pconf_cmd->datanum++;
 190              		.loc 1 58 0
 191 006a 154B     		ldr	r3, .L15
 192 006c 1B68     		ldr	r3, [r3]
 193 006e 9A7B     		ldrb	r2, [r3, #14]
 194 0070 0132     		add	r2, r2, #1
 195 0072 D2B2     		uxtb	r2, r2
 196 0074 9A73     		strb	r2, [r3, #14]
  59:.\main.c      ****              if(g_pconf_cmd->datanum == CMD_DATA_NUM) g_pconf_cmd->sta=CRC_STA; 
 197              		.loc 1 59 0
 198 0076 124B     		ldr	r3, .L15
ARM GAS  C:\Users\wzh\AppData\Local\Temp\cc8gjj2g.s 			page 6


 199 0078 1B68     		ldr	r3, [r3]
 200 007a 9B7B     		ldrb	r3, [r3, #14]
 201 007c 0B2B     		cmp	r3, #11
 202 007e 04D1     		bne	.L14
  59:.\main.c      ****              if(g_pconf_cmd->datanum == CMD_DATA_NUM) g_pconf_cmd->sta=CRC_STA; 
 203              		.loc 1 59 0 is_stmt 0 discriminator 1
 204 0080 0F4B     		ldr	r3, .L15
 205 0082 1B68     		ldr	r3, [r3]
 206 0084 0522     		mov	r2, #5
 207 0086 1A73     		strb	r2, [r3, #12]
  60:.\main.c      ****             break;
 208              		.loc 1 60 0 is_stmt 1 discriminator 1
 209 0088 14E0     		b	.L12
 210              	.L14:
  60:.\main.c      ****             break;
 211              		.loc 1 60 0 is_stmt 0
 212 008a 13E0     		b	.L12
 213              	.L9:
  62:.\main.c      ****              g_pconf_cmd->crc=UART_DEB_SpiUartReadRxData();
 214              		.loc 1 62 0 is_stmt 1
 215 008c 0C4B     		ldr	r3, .L15
 216 008e 1C68     		ldr	r4, [r3]
 217 0090 FFF7FEFF 		bl	UART_DEB_SpiUartReadRxData
 218 0094 031C     		mov	r3, r0
 219 0096 DBB2     		uxtb	r3, r3
 220 0098 E372     		strb	r3, [r4, #11]
  63:.\main.c      ****              g_pconf_cmd->sta=HEADER1_STA;
 221              		.loc 1 63 0
 222 009a 094B     		ldr	r3, .L15
 223 009c 1B68     		ldr	r3, [r3]
 224 009e 0122     		mov	r2, #1
 225 00a0 1A73     		strb	r2, [r3, #12]
  64:.\main.c      ****              g_pconf_cmd->datanum=0;
 226              		.loc 1 64 0
 227 00a2 074B     		ldr	r3, .L15
 228 00a4 1B68     		ldr	r3, [r3]
 229 00a6 0022     		mov	r2, #0
 230 00a8 9A73     		strb	r2, [r3, #14]
  65:.\main.c      ****              g_pconf_cmd->flag=1;
 231              		.loc 1 65 0
 232 00aa 054B     		ldr	r3, .L15
 233 00ac 1B68     		ldr	r3, [r3]
 234 00ae 0122     		mov	r2, #1
 235 00b0 DA73     		strb	r2, [r3, #15]
  66:.\main.c      ****             break;
 236              		.loc 1 66 0
 237 00b2 C046     		mov	r8, r8
 238              	.L12:
  68:.\main.c      ****     }
  69:.\main.c      ****     UART_DEB_ClearRxInterruptSource( UART_DEB_GetRxInterruptSource());
 239              		.loc 1 69 0
 240 00b4 044B     		ldr	r3, .L15+8
 241 00b6 044A     		ldr	r2, .L15+8
 242 00b8 1268     		ldr	r2, [r2]
 243 00ba 1A60     		str	r2, [r3]
  70:.\main.c      **** }
 244              		.loc 1 70 0
ARM GAS  C:\Users\wzh\AppData\Local\Temp\cc8gjj2g.s 			page 7


 245 00bc BD46     		mov	sp, r7
 246              		@ sp needed
 247 00be 98BD     		pop	{r3, r4, r7, pc}
 248              	.L16:
 249              		.align	2
 250              	.L15:
 251 00c0 00000000 		.word	g_pconf_cmd
 252 00c4 00000000 		.word	p.6177
 253 00c8 C00F2440 		.word	1076105152
 254              		.cfi_endproc
 255              	.LFE36:
 256              		.size	UartRX_Interrupt, .-UartRX_Interrupt
 257              		.section	.rodata
 258 0031 000000   		.align	2
 259              	.LC12:
 260 0034 75617274 		.ascii	"uart inited! you can config led type and pwm duty. "
 260      20696E69 
 260      74656421 
 260      20796F75 
 260      2063616E 
 261 0067 200D00   		.ascii	" \015\000"
 262 006a 0000     		.align	2
 263              	.LC16:
 264 006c 636D6420 		.ascii	"cmd is: %s      \015\012acpuire num is:    %d\015\012"
 264      69733A20 
 264      25732020 
 264      20202020 
 264      0D0A6163 
 265 0095 00       		.ascii	"\000"
 266 0096 0000     		.align	2
 267              	.LC18:
 268 0098 70776D20 		.ascii	"pwm duty is:   %d,%d,%d,%d,%d,%d,%d,%d \015\012\000"
 268      64757479 
 268      2069733A 
 268      20202025 
 268      642C2564 
 269 00c2 0000     		.align	2
 270              	.LC20:
 271 00c4 73746172 		.ascii	"start acpuire data!\015\000"
 271      74206163 
 271      70756972 
 271      65206461 
 271      7461210D 
 272              		.global	__aeabi_idiv
 273 00d9 000000   		.align	2
 274              	.LC22:
 275 00dc 47524545 		.ascii	"GREEN led pwm duty is %d\015\012\000"
 275      4E206C65 
 275      64207077 
 275      6D206475 
 275      74792069 
 276 00f7 00       		.align	2
 277              	.LC24:
 278 00f8 0D0A0D0A 		.ascii	"\015\012\015\012\015\000"
 278      0D00
 279 00fe 0000     		.align	2
 280              	.LC26:
ARM GAS  C:\Users\wzh\AppData\Local\Temp\cc8gjj2g.s 			page 8


 281 0100 52454420 		.ascii	"RED led pwm duty is %d \015\012\000"
 281      6C656420 
 281      70776D20 
 281      64757479 
 281      20697320 
 282 011a 0000     		.align	2
 283              	.LC28:
 284 011c 4952206C 		.ascii	"IR led pwm duty is %d \015\012\000"
 284      65642070 
 284      776D2064 
 284      75747920 
 284      69732025 
 285 0135 000000   		.align	2
 286              	.LC30:
 287 0138 4E495220 		.ascii	"NIR led pwm duty is %d \015\012\000"
 287      6C656420 
 287      70776D20 
 287      64757479 
 287      20697320 
 288 0152 0000     		.section	.text.main,"ax",%progbits
 289              		.align	2
 290              		.global	main
 291              		.code	16
 292              		.thumb_func
 293              		.type	main, %function
 294              	main:
 295              	.LFB37:
  71:.\main.c      **** 
  72:.\main.c      **** void main()
  73:.\main.c      **** {
 296              		.loc 1 73 0
 297              		.cfi_startproc
 298 0000 F0B5     		push	{r4, r5, r6, r7, lr}
 299              		.cfi_def_cfa_offset 20
 300              		.cfi_offset 4, -20
 301              		.cfi_offset 5, -16
 302              		.cfi_offset 6, -12
 303              		.cfi_offset 7, -8
 304              		.cfi_offset 14, -4
 305 0002 4746     		mov	r7, r8
 306 0004 80B4     		push	{r7}
 307              		.cfi_def_cfa_offset 24
 308              		.cfi_offset 8, -24
 309 0006 8AB0     		sub	sp, sp, #40
 310              		.cfi_def_cfa_offset 64
 311 0008 06AF     		add	r7, sp, #24
 312              		.cfi_def_cfa 7, 40
  74:.\main.c      ****     unsigned char i=0;
 313              		.loc 1 74 0
 314 000a 3B1C     		mov	r3, r7
 315 000c 0F33     		add	r3, r3, #15
 316 000e 0022     		mov	r2, #0
 317 0010 1A70     		strb	r2, [r3]
  75:.\main.c      ****     uint16 j;
  76:.\main.c      ****     CyGlobalIntEnable;  
 318              		.loc 1 76 0
 319              	@ 76 ".\main.c" 1
ARM GAS  C:\Users\wzh\AppData\Local\Temp\cc8gjj2g.s 			page 9


 320 0012 62B6     		CPSIE   i
 321              	@ 0 "" 2
  77:.\main.c      ****     
  78:.\main.c      ****     g_pconf_cmd->sta=HEADER1_STA;
 322              		.loc 1 78 0
 323              		.code	16
 324 0014 DD4B     		ldr	r3, .L50
 325 0016 1B68     		ldr	r3, [r3]
 326 0018 0122     		mov	r2, #1
 327 001a 1A73     		strb	r2, [r3, #12]
  79:.\main.c      ****     g_pconf_cmd->datanum=0;
 328              		.loc 1 79 0
 329 001c DB4B     		ldr	r3, .L50
 330 001e 1B68     		ldr	r3, [r3]
 331 0020 0022     		mov	r2, #0
 332 0022 9A73     		strb	r2, [r3, #14]
  80:.\main.c      ****     /*config uart*/
  81:.\main.c      ****     UART_DEB_Start(); 
 333              		.loc 1 81 0
 334 0024 FFF7FEFF 		bl	UART_DEB_Start
  82:.\main.c      ****     UART_DEB_SCB_IRQ_Start();
 335              		.loc 1 82 0
 336 0028 FFF7FEFF 		bl	UART_DEB_SCB_IRQ_Start
  83:.\main.c      ****     UART_DEB_SCB_IRQ_StartEx(UartRX_Interrupt);
 337              		.loc 1 83 0
 338 002c D84B     		ldr	r3, .L50+4
 339 002e 181C     		mov	r0, r3
 340 0030 FFF7FEFF 		bl	UART_DEB_SCB_IRQ_StartEx
  84:.\main.c      ****     printf("uart inited! you can config led type and pwm duty.  \r\n");
 341              		.loc 1 84 0
 342 0034 D74B     		ldr	r3, .L50+8
 343 0036 181C     		mov	r0, r3
 344 0038 FFF7FEFF 		bl	puts
  85:.\main.c      ****     
  86:.\main.c      ****     /*config PWM*/
  87:.\main.c      ****     PWM_IR_AND_RED_Start();
 345              		.loc 1 87 0
 346 003c FFF7FEFF 		bl	PWM_IR_AND_RED_Start
  88:.\main.c      ****     PWM_NIR1_Start();
 347              		.loc 1 88 0
 348 0040 FFF7FEFF 		bl	PWM_NIR1_Start
  89:.\main.c      ****     PWM_GREEN_Start();
 349              		.loc 1 89 0
 350 0044 FFF7FEFF 		bl	PWM_GREEN_Start
  90:.\main.c      ****     
  91:.\main.c      ****          
  92:.\main.c      ****     /* Start Opamp component */
  93:.\main.c      ****     Opamp_Start();
 351              		.loc 1 93 0
 352 0048 FFF7FEFF 		bl	Opamp_Start
  94:.\main.c      ****     /* Sets Opamp power mode to High power */
  95:.\main.c      ****     Opamp_SetPower(Opamp_HIGH_POWER);
 353              		.loc 1 95 0
 354 004c 0320     		mov	r0, #3
 355 004e FFF7FEFF 		bl	Opamp_SetPower
  96:.\main.c      ****     
  97:.\main.c      ****     /*ADC init*/
ARM GAS  C:\Users\wzh\AppData\Local\Temp\cc8gjj2g.s 			page 10


  98:.\main.c      ****     ADC_SAR_Start();
 356              		.loc 1 98 0
 357 0052 FFF7FEFF 		bl	ADC_SAR_Start
 358              	.L49:
  99:.\main.c      ****     
 100:.\main.c      ****      //ADC_StartConvert();
 101:.\main.c      ****     //ADC_SAR_IsEndConversion(ADC_SAR_WAIT_FOR_RESULT);
 102:.\main.c      ****     //g_adcResult = ADC_SAR_GetResult16(ADC_IN_CHANNEL );
 103:.\main.c      **** 
 104:.\main.c      ****     for(;;)
 105:.\main.c      ****     {
 106:.\main.c      ****          //  UART_DEB_UartPutChar(0x55);
 107:.\main.c      ****          if(g_pconf_cmd->flag==1)
 359              		.loc 1 107 0
 360 0056 CD4B     		ldr	r3, .L50
 361 0058 1B68     		ldr	r3, [r3]
 362 005a DB7B     		ldrb	r3, [r3, #15]
 363 005c 012B     		cmp	r3, #1
 364 005e 00D0     		beq	.LCB234
 365 0060 05E3     		b	.L18	@long jump
 366              	.LCB234:
 108:.\main.c      ****         {
 109:.\main.c      ****             g_config_cmd.flag=0; 
 367              		.loc 1 109 0
 368 0062 CD4B     		ldr	r3, .L50+12
 369 0064 0022     		mov	r2, #0
 370 0066 DA73     		strb	r2, [r3, #15]
 110:.\main.c      ****       /*print configure information*/
 111:.\main.c      ****             printf("cmd is: %s      \r\nacpuire num is:    %d\r\n",Ledtype[g_pconf_cmd->cmd],(g_pco
 371              		.loc 1 111 0
 372 0068 C84B     		ldr	r3, .L50
 373 006a 1B68     		ldr	r3, [r3]
 374 006c 1B78     		ldrb	r3, [r3]
 375 006e 1A1C     		mov	r2, r3
 376 0070 CA4B     		ldr	r3, .L50+16
 377 0072 9200     		lsl	r2, r2, #2
 378 0074 D258     		ldr	r2, [r2, r3]
 379 0076 C54B     		ldr	r3, .L50
 380 0078 1B68     		ldr	r3, [r3]
 381 007a 5B78     		ldrb	r3, [r3, #1]
 382 007c 1902     		lsl	r1, r3, #8
 383 007e C34B     		ldr	r3, .L50
 384 0080 1B68     		ldr	r3, [r3]
 385 0082 9B78     		ldrb	r3, [r3, #2]
 386 0084 CB18     		add	r3, r1, r3
 387 0086 C649     		ldr	r1, .L50+20
 388 0088 081C     		mov	r0, r1
 389 008a 111C     		mov	r1, r2
 390 008c 1A1C     		mov	r2, r3
 391 008e FFF7FEFF 		bl	printf
 112:.\main.c      ****             printf("pwm duty is:   %d,%d,%d,%d,%d,%d,%d,%d \r\n",g_pconf_cmd->pwm[0],g_pconf_cmd->p
 392              		.loc 1 112 0
 393 0092 BE4B     		ldr	r3, .L50
 394 0094 1B68     		ldr	r3, [r3]
 395 0096 DB78     		ldrb	r3, [r3, #3]
 396 0098 191C     		mov	r1, r3
 397 009a BC4B     		ldr	r3, .L50
ARM GAS  C:\Users\wzh\AppData\Local\Temp\cc8gjj2g.s 			page 11


 398 009c 1B68     		ldr	r3, [r3]
 399 009e 1B79     		ldrb	r3, [r3, #4]
 400 00a0 1A1C     		mov	r2, r3
 113:.\main.c      ****                g_pconf_cmd->pwm[2],g_pconf_cmd->pwm[3],g_pconf_cmd->pwm[4],g_pconf_cmd->pwm[5],g_pc
 401              		.loc 1 113 0
 402 00a2 BA4B     		ldr	r3, .L50
 403 00a4 1B68     		ldr	r3, [r3]
 404 00a6 5B79     		ldrb	r3, [r3, #5]
 112:.\main.c      ****             printf("pwm duty is:   %d,%d,%d,%d,%d,%d,%d,%d \r\n",g_pconf_cmd->pwm[0],g_pconf_cmd->p
 405              		.loc 1 112 0
 406 00a8 1C1C     		mov	r4, r3
 407              		.loc 1 113 0
 408 00aa B84B     		ldr	r3, .L50
 409 00ac 1B68     		ldr	r3, [r3]
 410 00ae 9B79     		ldrb	r3, [r3, #6]
 112:.\main.c      ****             printf("pwm duty is:   %d,%d,%d,%d,%d,%d,%d,%d \r\n",g_pconf_cmd->pwm[0],g_pconf_cmd->p
 411              		.loc 1 112 0
 412 00b0 9846     		mov	r8, r3
 413              		.loc 1 113 0
 414 00b2 B64B     		ldr	r3, .L50
 415 00b4 1B68     		ldr	r3, [r3]
 416 00b6 DB79     		ldrb	r3, [r3, #7]
 112:.\main.c      ****             printf("pwm duty is:   %d,%d,%d,%d,%d,%d,%d,%d \r\n",g_pconf_cmd->pwm[0],g_pconf_cmd->p
 417              		.loc 1 112 0
 418 00b8 9C46     		mov	ip, r3
 419              		.loc 1 113 0
 420 00ba B44B     		ldr	r3, .L50
 421 00bc 1B68     		ldr	r3, [r3]
 422 00be 1B7A     		ldrb	r3, [r3, #8]
 112:.\main.c      ****             printf("pwm duty is:   %d,%d,%d,%d,%d,%d,%d,%d \r\n",g_pconf_cmd->pwm[0],g_pconf_cmd->p
 423              		.loc 1 112 0
 424 00c0 1E1C     		mov	r6, r3
 425              		.loc 1 113 0
 426 00c2 B24B     		ldr	r3, .L50
 427 00c4 1B68     		ldr	r3, [r3]
 428 00c6 5B7A     		ldrb	r3, [r3, #9]
 112:.\main.c      ****             printf("pwm duty is:   %d,%d,%d,%d,%d,%d,%d,%d \r\n",g_pconf_cmd->pwm[0],g_pconf_cmd->p
 429              		.loc 1 112 0
 430 00c8 1D1C     		mov	r5, r3
 431              		.loc 1 113 0
 432 00ca B04B     		ldr	r3, .L50
 433 00cc 1B68     		ldr	r3, [r3]
 434 00ce 9B7A     		ldrb	r3, [r3, #10]
 112:.\main.c      ****             printf("pwm duty is:   %d,%d,%d,%d,%d,%d,%d,%d \r\n",g_pconf_cmd->pwm[0],g_pconf_cmd->p
 435              		.loc 1 112 0
 436 00d0 181C     		mov	r0, r3
 437 00d2 B44B     		ldr	r3, .L50+24
 438 00d4 7B60     		str	r3, [r7, #4]
 439 00d6 4346     		mov	r3, r8
 440 00d8 0093     		str	r3, [sp]
 441 00da 6346     		mov	r3, ip
 442 00dc 0193     		str	r3, [sp, #4]
 443 00de 0296     		str	r6, [sp, #8]
 444 00e0 0395     		str	r5, [sp, #12]
 445 00e2 0490     		str	r0, [sp, #16]
 446 00e4 7868     		ldr	r0, [r7, #4]
 447 00e6 231C     		mov	r3, r4
ARM GAS  C:\Users\wzh\AppData\Local\Temp\cc8gjj2g.s 			page 12


 448 00e8 FFF7FEFF 		bl	printf
 114:.\main.c      ****             printf("start acpuire data!\r\n");
 449              		.loc 1 114 0
 450 00ec AE4B     		ldr	r3, .L50+28
 451 00ee 181C     		mov	r0, r3
 452 00f0 FFF7FEFF 		bl	puts
 115:.\main.c      ****        
 116:.\main.c      ****             i=0;
 453              		.loc 1 116 0
 454 00f4 3B1C     		mov	r3, r7
 455 00f6 0F33     		add	r3, r3, #15
 456 00f8 0022     		mov	r2, #0
 457 00fa 1A70     		strb	r2, [r3]
 117:.\main.c      ****             if(g_pconf_cmd->cmd==CMD_GREEN)  
 458              		.loc 1 117 0
 459 00fc A34B     		ldr	r3, .L50
 460 00fe 1B68     		ldr	r3, [r3]
 461 0100 1B78     		ldrb	r3, [r3]
 462 0102 012B     		cmp	r3, #1
 463 0104 57D1     		bne	.L19
 118:.\main.c      ****             {
 119:.\main.c      ****                  PWM_IR_AND_RED_Stop();// 
 464              		.loc 1 119 0
 465 0106 FFF7FEFF 		bl	PWM_IR_AND_RED_Stop
 120:.\main.c      ****                  PWM_NIR1_Stop();
 466              		.loc 1 120 0
 467 010a FFF7FEFF 		bl	PWM_NIR1_Stop
 121:.\main.c      ****                  while((g_pconf_cmd->pwm[i]!=0) && (i<8))
 468              		.loc 1 121 0
 469 010e 42E0     		b	.L20
 470              	.L24:
 122:.\main.c      ****                   {
 123:.\main.c      ****                     PWM_GREEN_WriteCompare((uint8)((g_pconf_cmd->pwm[i]<<8)/100));
 471              		.loc 1 123 0
 472 0110 9E4B     		ldr	r3, .L50
 473 0112 1A68     		ldr	r2, [r3]
 474 0114 3B1C     		mov	r3, r7
 475 0116 0F33     		add	r3, r3, #15
 476 0118 1B78     		ldrb	r3, [r3]
 477 011a D318     		add	r3, r2, r3
 478 011c DB78     		ldrb	r3, [r3, #3]
 479 011e 1B02     		lsl	r3, r3, #8
 480 0120 181C     		mov	r0, r3
 481 0122 6421     		mov	r1, #100
 482 0124 FFF7FEFF 		bl	__aeabi_idiv
 483 0128 031C     		mov	r3, r0
 484 012a DBB2     		uxtb	r3, r3
 485 012c 181C     		mov	r0, r3
 486 012e FFF7FEFF 		bl	PWM_GREEN_WriteCompare
 124:.\main.c      ****                     PWM_GREEN_Enable();
 487              		.loc 1 124 0
 488 0132 FFF7FEFF 		bl	PWM_GREEN_Enable
 125:.\main.c      ****                     printf("GREEN led pwm duty is %d\r\n",(uint8)(g_pconf_cmd->pwm[i]));
 489              		.loc 1 125 0
 490 0136 954B     		ldr	r3, .L50
 491 0138 1A68     		ldr	r2, [r3]
 492 013a 3B1C     		mov	r3, r7
ARM GAS  C:\Users\wzh\AppData\Local\Temp\cc8gjj2g.s 			page 13


 493 013c 0F33     		add	r3, r3, #15
 494 013e 1B78     		ldrb	r3, [r3]
 495 0140 D318     		add	r3, r2, r3
 496 0142 DB78     		ldrb	r3, [r3, #3]
 497 0144 994A     		ldr	r2, .L50+32
 498 0146 101C     		mov	r0, r2
 499 0148 191C     		mov	r1, r3
 500 014a FFF7FEFF 		bl	printf
 126:.\main.c      ****                     j=(g_pconf_cmd->acqnum_h<<8) + g_pconf_cmd->acqnum_l;
 501              		.loc 1 126 0
 502 014e 8F4B     		ldr	r3, .L50
 503 0150 1B68     		ldr	r3, [r3]
 504 0152 5B78     		ldrb	r3, [r3, #1]
 505 0154 1B02     		lsl	r3, r3, #8
 506 0156 99B2     		uxth	r1, r3
 507 0158 8C4B     		ldr	r3, .L50
 508 015a 1B68     		ldr	r3, [r3]
 509 015c 9B78     		ldrb	r3, [r3, #2]
 510 015e 1A1C     		mov	r2, r3
 511 0160 3B1C     		mov	r3, r7
 512 0162 0C33     		add	r3, r3, #12
 513 0164 8A18     		add	r2, r1, r2
 514 0166 1A80     		strh	r2, [r3]
 127:.\main.c      ****                     while(j--)
 515              		.loc 1 127 0
 516 0168 01E0     		b	.L21
 517              	.L22:
 128:.\main.c      ****                         Data_Acquire_and_Print();
 518              		.loc 1 128 0
 519 016a FFF7FEFF 		bl	Data_Acquire_and_Print
 520              	.L21:
 127:.\main.c      ****                     while(j--)
 521              		.loc 1 127 0 discriminator 1
 522 016e 3B1C     		mov	r3, r7
 523 0170 0C33     		add	r3, r3, #12
 524 0172 1B88     		ldrh	r3, [r3]
 525 0174 3A1C     		mov	r2, r7
 526 0176 0C32     		add	r2, r2, #12
 527 0178 591E     		sub	r1, r3, #1
 528 017a 1180     		strh	r1, [r2]
 529 017c 002B     		cmp	r3, #0
 530 017e F4D1     		bne	.L22
 129:.\main.c      ****                     i++;   
 531              		.loc 1 129 0
 532 0180 3B1C     		mov	r3, r7
 533 0182 0F33     		add	r3, r3, #15
 534 0184 1A78     		ldrb	r2, [r3]
 535 0186 3B1C     		mov	r3, r7
 536 0188 0F33     		add	r3, r3, #15
 537 018a 0132     		add	r2, r2, #1
 538 018c 1A70     		strb	r2, [r3]
 130:.\main.c      ****                     printf("\r\n\r\n\r\n");
 539              		.loc 1 130 0
 540 018e 884B     		ldr	r3, .L50+36
 541 0190 181C     		mov	r0, r3
 542 0192 FFF7FEFF 		bl	puts
 543              	.L20:
ARM GAS  C:\Users\wzh\AppData\Local\Temp\cc8gjj2g.s 			page 14


 121:.\main.c      ****                  while((g_pconf_cmd->pwm[i]!=0) && (i<8))
 544              		.loc 1 121 0 discriminator 1
 545 0196 7D4B     		ldr	r3, .L50
 546 0198 1A68     		ldr	r2, [r3]
 547 019a 3B1C     		mov	r3, r7
 548 019c 0F33     		add	r3, r3, #15
 549 019e 1B78     		ldrb	r3, [r3]
 550 01a0 D318     		add	r3, r2, r3
 551 01a2 DB78     		ldrb	r3, [r3, #3]
 552 01a4 002B     		cmp	r3, #0
 553 01a6 04D0     		beq	.L23
 121:.\main.c      ****                  while((g_pconf_cmd->pwm[i]!=0) && (i<8))
 554              		.loc 1 121 0 is_stmt 0 discriminator 2
 555 01a8 3B1C     		mov	r3, r7
 556 01aa 0F33     		add	r3, r3, #15
 557 01ac 1B78     		ldrb	r3, [r3]
 558 01ae 072B     		cmp	r3, #7
 559 01b0 AED9     		bls	.L24
 560              	.L23:
 131:.\main.c      ****                   }
 132:.\main.c      ****                 PWM_GREEN_Stop();//
 561              		.loc 1 132 0 is_stmt 1
 562 01b2 FFF7FEFF 		bl	PWM_GREEN_Stop
 563              	.L19:
 133:.\main.c      ****             }
 134:.\main.c      ****             
 135:.\main.c      ****             if(g_pconf_cmd->cmd==CMD_REDANDIR)  
 564              		.loc 1 135 0
 565 01b6 754B     		ldr	r3, .L50
 566 01b8 1B68     		ldr	r3, [r3]
 567 01ba 1B78     		ldrb	r3, [r3]
 568 01bc 022B     		cmp	r3, #2
 569 01be 00D0     		beq	.LCB410
 570 01c0 9AE0     		b	.L25	@long jump
 571              	.LCB410:
 136:.\main.c      ****             {
 137:.\main.c      ****                 PWM_GREEN_Stop();//  
 572              		.loc 1 137 0
 573 01c2 FFF7FEFF 		bl	PWM_GREEN_Stop
 138:.\main.c      ****                 PWM_NIR1_Stop();
 574              		.loc 1 138 0
 575 01c6 FFF7FEFF 		bl	PWM_NIR1_Stop
 139:.\main.c      ****                 while((g_pconf_cmd->pwm[i]!=0) && (i<8))
 576              		.loc 1 139 0
 577 01ca 84E0     		b	.L26
 578              	.L32:
 140:.\main.c      ****                 {
 141:.\main.c      ****                     PWM_IR_AND_RED_WriteCompare1((uint8)((g_pconf_cmd->pwm[i]<<8)/100));  //RED LED
 579              		.loc 1 141 0
 580 01cc 6F4B     		ldr	r3, .L50
 581 01ce 1A68     		ldr	r2, [r3]
 582 01d0 3B1C     		mov	r3, r7
 583 01d2 0F33     		add	r3, r3, #15
 584 01d4 1B78     		ldrb	r3, [r3]
 585 01d6 D318     		add	r3, r2, r3
 586 01d8 DB78     		ldrb	r3, [r3, #3]
 587 01da 1B02     		lsl	r3, r3, #8
ARM GAS  C:\Users\wzh\AppData\Local\Temp\cc8gjj2g.s 			page 15


 588 01dc 181C     		mov	r0, r3
 589 01de 6421     		mov	r1, #100
 590 01e0 FFF7FEFF 		bl	__aeabi_idiv
 591 01e4 031C     		mov	r3, r0
 592 01e6 DBB2     		uxtb	r3, r3
 593 01e8 181C     		mov	r0, r3
 594 01ea FFF7FEFF 		bl	PWM_IR_AND_RED_WriteCompare1
 142:.\main.c      ****                     PWM_IR_AND_RED_WriteCompare2(0);
 595              		.loc 1 142 0
 596 01ee 0020     		mov	r0, #0
 597 01f0 FFF7FEFF 		bl	PWM_IR_AND_RED_WriteCompare2
 143:.\main.c      ****                     PWM_IR_AND_RED_Enable();
 598              		.loc 1 143 0
 599 01f4 FFF7FEFF 		bl	PWM_IR_AND_RED_Enable
 144:.\main.c      ****                     printf("RED led pwm duty is %d \r\n",(uint8)g_pconf_cmd->pwm[i]);
 600              		.loc 1 144 0
 601 01f8 644B     		ldr	r3, .L50
 602 01fa 1A68     		ldr	r2, [r3]
 603 01fc 3B1C     		mov	r3, r7
 604 01fe 0F33     		add	r3, r3, #15
 605 0200 1B78     		ldrb	r3, [r3]
 606 0202 D318     		add	r3, r2, r3
 607 0204 DB78     		ldrb	r3, [r3, #3]
 608 0206 6B4A     		ldr	r2, .L50+40
 609 0208 101C     		mov	r0, r2
 610 020a 191C     		mov	r1, r3
 611 020c FFF7FEFF 		bl	printf
 145:.\main.c      ****                     j=(g_pconf_cmd->acqnum_h<<8) + g_pconf_cmd->acqnum_l;
 612              		.loc 1 145 0
 613 0210 5E4B     		ldr	r3, .L50
 614 0212 1B68     		ldr	r3, [r3]
 615 0214 5B78     		ldrb	r3, [r3, #1]
 616 0216 1B02     		lsl	r3, r3, #8
 617 0218 99B2     		uxth	r1, r3
 618 021a 5C4B     		ldr	r3, .L50
 619 021c 1B68     		ldr	r3, [r3]
 620 021e 9B78     		ldrb	r3, [r3, #2]
 621 0220 1A1C     		mov	r2, r3
 622 0222 3B1C     		mov	r3, r7
 623 0224 0C33     		add	r3, r3, #12
 624 0226 8A18     		add	r2, r1, r2
 625 0228 1A80     		strh	r2, [r3]
 146:.\main.c      ****                     while(j--)  Data_Acquire_and_Print();
 626              		.loc 1 146 0
 627 022a 01E0     		b	.L27
 628              	.L28:
 629              		.loc 1 146 0 is_stmt 0 discriminator 2
 630 022c FFF7FEFF 		bl	Data_Acquire_and_Print
 631              	.L27:
 632              		.loc 1 146 0 discriminator 1
 633 0230 3B1C     		mov	r3, r7
 634 0232 0C33     		add	r3, r3, #12
 635 0234 1B88     		ldrh	r3, [r3]
 636 0236 3A1C     		mov	r2, r7
 637 0238 0C32     		add	r2, r2, #12
 638 023a 591E     		sub	r1, r3, #1
 639 023c 1180     		strh	r1, [r2]
ARM GAS  C:\Users\wzh\AppData\Local\Temp\cc8gjj2g.s 			page 16


 640 023e 002B     		cmp	r3, #0
 641 0240 F4D1     		bne	.L28
 147:.\main.c      ****                     printf("\r\n\r\n\r\n");
 642              		.loc 1 147 0 is_stmt 1
 643 0242 5B4B     		ldr	r3, .L50+36
 644 0244 181C     		mov	r0, r3
 645 0246 FFF7FEFF 		bl	puts
 148:.\main.c      ****                     
 149:.\main.c      ****                     PWM_IR_AND_RED_WriteCompare2((uint8)((g_pconf_cmd->pwm[i]<<8)/100)); //IR LED
 646              		.loc 1 149 0
 647 024a 504B     		ldr	r3, .L50
 648 024c 1A68     		ldr	r2, [r3]
 649 024e 3B1C     		mov	r3, r7
 650 0250 0F33     		add	r3, r3, #15
 651 0252 1B78     		ldrb	r3, [r3]
 652 0254 D318     		add	r3, r2, r3
 653 0256 DB78     		ldrb	r3, [r3, #3]
 654 0258 1B02     		lsl	r3, r3, #8
 655 025a 181C     		mov	r0, r3
 656 025c 6421     		mov	r1, #100
 657 025e FFF7FEFF 		bl	__aeabi_idiv
 658 0262 031C     		mov	r3, r0
 659 0264 DBB2     		uxtb	r3, r3
 660 0266 181C     		mov	r0, r3
 661 0268 FFF7FEFF 		bl	PWM_IR_AND_RED_WriteCompare2
 150:.\main.c      ****                     PWM_IR_AND_RED_WriteCompare1(0);
 662              		.loc 1 150 0
 663 026c 0020     		mov	r0, #0
 664 026e FFF7FEFF 		bl	PWM_IR_AND_RED_WriteCompare1
 151:.\main.c      ****                     PWM_IR_AND_RED_Enable();
 665              		.loc 1 151 0
 666 0272 FFF7FEFF 		bl	PWM_IR_AND_RED_Enable
 152:.\main.c      ****                     printf("IR led pwm duty is %d \r\n",(uint8)g_pconf_cmd->pwm[i]);
 667              		.loc 1 152 0
 668 0276 454B     		ldr	r3, .L50
 669 0278 1A68     		ldr	r2, [r3]
 670 027a 3B1C     		mov	r3, r7
 671 027c 0F33     		add	r3, r3, #15
 672 027e 1B78     		ldrb	r3, [r3]
 673 0280 D318     		add	r3, r2, r3
 674 0282 DB78     		ldrb	r3, [r3, #3]
 675 0284 4C4A     		ldr	r2, .L50+44
 676 0286 101C     		mov	r0, r2
 677 0288 191C     		mov	r1, r3
 678 028a FFF7FEFF 		bl	printf
 153:.\main.c      ****                     j=(g_pconf_cmd->acqnum_h<<8) + g_pconf_cmd->acqnum_l;
 679              		.loc 1 153 0
 680 028e 3F4B     		ldr	r3, .L50
 681 0290 1B68     		ldr	r3, [r3]
 682 0292 5B78     		ldrb	r3, [r3, #1]
 683 0294 1B02     		lsl	r3, r3, #8
 684 0296 99B2     		uxth	r1, r3
 685 0298 3C4B     		ldr	r3, .L50
 686 029a 1B68     		ldr	r3, [r3]
 687 029c 9B78     		ldrb	r3, [r3, #2]
 688 029e 1A1C     		mov	r2, r3
 689 02a0 3B1C     		mov	r3, r7
ARM GAS  C:\Users\wzh\AppData\Local\Temp\cc8gjj2g.s 			page 17


 690 02a2 0C33     		add	r3, r3, #12
 691 02a4 8A18     		add	r2, r1, r2
 692 02a6 1A80     		strh	r2, [r3]
 154:.\main.c      ****                     while(j--)  Data_Acquire_and_Print();
 693              		.loc 1 154 0
 694 02a8 01E0     		b	.L29
 695              	.L30:
 696              		.loc 1 154 0 is_stmt 0 discriminator 2
 697 02aa FFF7FEFF 		bl	Data_Acquire_and_Print
 698              	.L29:
 699              		.loc 1 154 0 discriminator 1
 700 02ae 3B1C     		mov	r3, r7
 701 02b0 0C33     		add	r3, r3, #12
 702 02b2 1B88     		ldrh	r3, [r3]
 703 02b4 3A1C     		mov	r2, r7
 704 02b6 0C32     		add	r2, r2, #12
 705 02b8 591E     		sub	r1, r3, #1
 706 02ba 1180     		strh	r1, [r2]
 707 02bc 002B     		cmp	r3, #0
 708 02be F4D1     		bne	.L30
 155:.\main.c      ****                     i++;
 709              		.loc 1 155 0 is_stmt 1
 710 02c0 3B1C     		mov	r3, r7
 711 02c2 0F33     		add	r3, r3, #15
 712 02c4 1A78     		ldrb	r2, [r3]
 713 02c6 3B1C     		mov	r3, r7
 714 02c8 0F33     		add	r3, r3, #15
 715 02ca 0132     		add	r2, r2, #1
 716 02cc 1A70     		strb	r2, [r3]
 156:.\main.c      ****                     printf("\r\n\r\n\r\n");
 717              		.loc 1 156 0
 718 02ce 384B     		ldr	r3, .L50+36
 719 02d0 181C     		mov	r0, r3
 720 02d2 FFF7FEFF 		bl	puts
 721              	.L26:
 139:.\main.c      ****                 while((g_pconf_cmd->pwm[i]!=0) && (i<8))
 722              		.loc 1 139 0 discriminator 1
 723 02d6 2D4B     		ldr	r3, .L50
 724 02d8 1A68     		ldr	r2, [r3]
 725 02da 3B1C     		mov	r3, r7
 726 02dc 0F33     		add	r3, r3, #15
 727 02de 1B78     		ldrb	r3, [r3]
 728 02e0 D318     		add	r3, r2, r3
 729 02e2 DB78     		ldrb	r3, [r3, #3]
 730 02e4 002B     		cmp	r3, #0
 731 02e6 05D0     		beq	.L31
 139:.\main.c      ****                 while((g_pconf_cmd->pwm[i]!=0) && (i<8))
 732              		.loc 1 139 0 is_stmt 0 discriminator 2
 733 02e8 3B1C     		mov	r3, r7
 734 02ea 0F33     		add	r3, r3, #15
 735 02ec 1B78     		ldrb	r3, [r3]
 736 02ee 072B     		cmp	r3, #7
 737 02f0 00D8     		bhi	.LCB561
 738 02f2 6BE7     		b	.L32	@long jump
 739              	.LCB561:
 740              	.L31:
 157:.\main.c      ****                }
ARM GAS  C:\Users\wzh\AppData\Local\Temp\cc8gjj2g.s 			page 18


 158:.\main.c      ****                 PWM_IR_AND_RED_Stop();// 
 741              		.loc 1 158 0 is_stmt 1
 742 02f4 FFF7FEFF 		bl	PWM_IR_AND_RED_Stop
 743              	.L25:
 159:.\main.c      ****             }
 160:.\main.c      ****             if(g_pconf_cmd->cmd==CMD_NIR)
 744              		.loc 1 160 0
 745 02f8 244B     		ldr	r3, .L50
 746 02fa 1B68     		ldr	r3, [r3]
 747 02fc 1B78     		ldrb	r3, [r3]
 748 02fe 032B     		cmp	r3, #3
 749 0300 00D0     		beq	.LCB570
 750 0302 84E0     		b	.L33	@long jump
 751              	.LCB570:
 161:.\main.c      ****             {
 162:.\main.c      ****                 PWM_GREEN_Stop();//  
 752              		.loc 1 162 0
 753 0304 FFF7FEFF 		bl	PWM_GREEN_Stop
 163:.\main.c      ****                 PWM_IR_AND_RED_Stop();
 754              		.loc 1 163 0
 755 0308 FFF7FEFF 		bl	PWM_IR_AND_RED_Stop
 164:.\main.c      ****                 while((g_pconf_cmd->pwm[i]!=0) && (i<8))
 756              		.loc 1 164 0
 757 030c 6EE0     		b	.L34
 758              	.L38:
 165:.\main.c      ****                 {
 166:.\main.c      ****                     PWM_NIR1_WriteCompare2((uint8)((g_pconf_cmd->pwm[i]<<8)/100));  //two NIR LED d
 759              		.loc 1 166 0
 760 030e 1F4B     		ldr	r3, .L50
 761 0310 1A68     		ldr	r2, [r3]
 762 0312 3B1C     		mov	r3, r7
 763 0314 0F33     		add	r3, r3, #15
 764 0316 1B78     		ldrb	r3, [r3]
 765 0318 D318     		add	r3, r2, r3
 766 031a DB78     		ldrb	r3, [r3, #3]
 767 031c 1B02     		lsl	r3, r3, #8
 768 031e 181C     		mov	r0, r3
 769 0320 6421     		mov	r1, #100
 770 0322 FFF7FEFF 		bl	__aeabi_idiv
 771 0326 031C     		mov	r3, r0
 772 0328 DBB2     		uxtb	r3, r3
 773 032a 181C     		mov	r0, r3
 774 032c FFF7FEFF 		bl	PWM_NIR1_WriteCompare2
 167:.\main.c      ****                     PWM_NIR1_WriteCompare1((uint8)((g_pconf_cmd->pwm[i]<<8)/100));
 775              		.loc 1 167 0
 776 0330 164B     		ldr	r3, .L50
 777 0332 1A68     		ldr	r2, [r3]
 778 0334 3B1C     		mov	r3, r7
 779 0336 0F33     		add	r3, r3, #15
 780 0338 1B78     		ldrb	r3, [r3]
 781 033a D318     		add	r3, r2, r3
 782 033c DB78     		ldrb	r3, [r3, #3]
 783 033e 1B02     		lsl	r3, r3, #8
 784 0340 181C     		mov	r0, r3
 785 0342 6421     		mov	r1, #100
 786 0344 FFF7FEFF 		bl	__aeabi_idiv
 787 0348 031C     		mov	r3, r0
ARM GAS  C:\Users\wzh\AppData\Local\Temp\cc8gjj2g.s 			page 19


 788 034a DBB2     		uxtb	r3, r3
 789 034c 181C     		mov	r0, r3
 790 034e FFF7FEFF 		bl	PWM_NIR1_WriteCompare1
 168:.\main.c      ****                  
 169:.\main.c      ****                     PWM_NIR1_Enable();
 791              		.loc 1 169 0
 792 0352 FFF7FEFF 		bl	PWM_NIR1_Enable
 170:.\main.c      ****                     printf("NIR led pwm duty is %d \r\n",(uint8)g_pconf_cmd->pwm[i]);
 793              		.loc 1 170 0
 794 0356 0D4B     		ldr	r3, .L50
 795 0358 1A68     		ldr	r2, [r3]
 796 035a 3B1C     		mov	r3, r7
 797 035c 0F33     		add	r3, r3, #15
 798 035e 1B78     		ldrb	r3, [r3]
 799 0360 D318     		add	r3, r2, r3
 800 0362 DB78     		ldrb	r3, [r3, #3]
 801 0364 154A     		ldr	r2, .L50+48
 802 0366 101C     		mov	r0, r2
 803 0368 191C     		mov	r1, r3
 804 036a FFF7FEFF 		bl	printf
 171:.\main.c      ****                     j=(g_pconf_cmd->acqnum_h<<8) + g_pconf_cmd->acqnum_l;
 805              		.loc 1 171 0
 806 036e 074B     		ldr	r3, .L50
 807 0370 1B68     		ldr	r3, [r3]
 808 0372 5B78     		ldrb	r3, [r3, #1]
 809 0374 1B02     		lsl	r3, r3, #8
 810 0376 99B2     		uxth	r1, r3
 811 0378 044B     		ldr	r3, .L50
 812 037a 1B68     		ldr	r3, [r3]
 813 037c 9B78     		ldrb	r3, [r3, #2]
 814 037e 1A1C     		mov	r2, r3
 815 0380 3B1C     		mov	r3, r7
 816 0382 0C33     		add	r3, r3, #12
 817 0384 8A18     		add	r2, r1, r2
 818 0386 1A80     		strh	r2, [r3]
 172:.\main.c      ****                     while(j--)  Data_Acquire_and_Print();
 819              		.loc 1 172 0
 820 0388 1CE0     		b	.L35
 821              	.L51:
 822 038a C046     		.align	2
 823              	.L50:
 824 038c 00000000 		.word	g_pconf_cmd
 825 0390 00000000 		.word	UartRX_Interrupt
 826 0394 34000000 		.word	.LC12
 827 0398 00000000 		.word	g_config_cmd
 828 039c 00000000 		.word	Ledtype
 829 03a0 6C000000 		.word	.LC16
 830 03a4 98000000 		.word	.LC18
 831 03a8 C4000000 		.word	.LC20
 832 03ac DC000000 		.word	.LC22
 833 03b0 F8000000 		.word	.LC24
 834 03b4 00010000 		.word	.LC26
 835 03b8 1C010000 		.word	.LC28
 836 03bc 38010000 		.word	.LC30
 837              	.L36:
 838              		.loc 1 172 0 is_stmt 0 discriminator 2
 839 03c0 FFF7FEFF 		bl	Data_Acquire_and_Print
ARM GAS  C:\Users\wzh\AppData\Local\Temp\cc8gjj2g.s 			page 20


 840              	.L35:
 841              		.loc 1 172 0 discriminator 1
 842 03c4 3B1C     		mov	r3, r7
 843 03c6 0C33     		add	r3, r3, #12
 844 03c8 1B88     		ldrh	r3, [r3]
 845 03ca 3A1C     		mov	r2, r7
 846 03cc 0C32     		add	r2, r2, #12
 847 03ce 591E     		sub	r1, r3, #1
 848 03d0 1180     		strh	r1, [r2]
 849 03d2 002B     		cmp	r3, #0
 850 03d4 F4D1     		bne	.L36
 173:.\main.c      ****                     i++;
 851              		.loc 1 173 0 is_stmt 1
 852 03d6 3B1C     		mov	r3, r7
 853 03d8 0F33     		add	r3, r3, #15
 854 03da 1A78     		ldrb	r2, [r3]
 855 03dc 3B1C     		mov	r3, r7
 856 03de 0F33     		add	r3, r3, #15
 857 03e0 0132     		add	r2, r2, #1
 858 03e2 1A70     		strb	r2, [r3]
 174:.\main.c      ****                     printf("\r\n\r\n\r\n");
 859              		.loc 1 174 0
 860 03e4 A24B     		ldr	r3, .L52
 861 03e6 181C     		mov	r0, r3
 862 03e8 FFF7FEFF 		bl	puts
 863              	.L34:
 164:.\main.c      ****                 while((g_pconf_cmd->pwm[i]!=0) && (i<8))
 864              		.loc 1 164 0 discriminator 1
 865 03ec A14B     		ldr	r3, .L52+4
 866 03ee 1A68     		ldr	r2, [r3]
 867 03f0 3B1C     		mov	r3, r7
 868 03f2 0F33     		add	r3, r3, #15
 869 03f4 1B78     		ldrb	r3, [r3]
 870 03f6 D318     		add	r3, r2, r3
 871 03f8 DB78     		ldrb	r3, [r3, #3]
 872 03fa 002B     		cmp	r3, #0
 873 03fc 05D0     		beq	.L37
 164:.\main.c      ****                 while((g_pconf_cmd->pwm[i]!=0) && (i<8))
 874              		.loc 1 164 0 is_stmt 0 discriminator 2
 875 03fe 3B1C     		mov	r3, r7
 876 0400 0F33     		add	r3, r3, #15
 877 0402 1B78     		ldrb	r3, [r3]
 878 0404 072B     		cmp	r3, #7
 879 0406 00D8     		bhi	.LCB691
 880 0408 81E7     		b	.L38	@long jump
 881              	.LCB691:
 882              	.L37:
 175:.\main.c      ****                 } 
 176:.\main.c      ****                 PWM_NIR1_Stop();
 883              		.loc 1 176 0 is_stmt 1
 884 040a FFF7FEFF 		bl	PWM_NIR1_Stop
 885              	.L33:
 177:.\main.c      ****            }
 178:.\main.c      ****             
 179:.\main.c      ****         if(g_pconf_cmd->cmd==CMD_ALL)
 886              		.loc 1 179 0
 887 040e 994B     		ldr	r3, .L52+4
ARM GAS  C:\Users\wzh\AppData\Local\Temp\cc8gjj2g.s 			page 21


 888 0410 1B68     		ldr	r3, [r3]
 889 0412 1B78     		ldrb	r3, [r3]
 890 0414 042B     		cmp	r3, #4
 891 0416 00D0     		beq	.LCB700
 892 0418 29E1     		b	.L18	@long jump
 893              	.LCB700:
 180:.\main.c      ****         {
 181:.\main.c      ****             while((g_pconf_cmd->pwm[i]!=0) && (i<8))
 894              		.loc 1 181 0
 895 041a 19E1     		b	.L39
 896              	.L48:
 182:.\main.c      ****             {
 183:.\main.c      ****                 /*GREEN LED*/
 184:.\main.c      ****                 PWM_IR_AND_RED_Stop();// 
 897              		.loc 1 184 0
 898 041c FFF7FEFF 		bl	PWM_IR_AND_RED_Stop
 185:.\main.c      ****                 PWM_NIR1_Stop();
 899              		.loc 1 185 0
 900 0420 FFF7FEFF 		bl	PWM_NIR1_Stop
 186:.\main.c      ****                 PWM_GREEN_WriteCompare((uint8)((g_pconf_cmd->pwm[i]<<8)/100));
 901              		.loc 1 186 0
 902 0424 934B     		ldr	r3, .L52+4
 903 0426 1A68     		ldr	r2, [r3]
 904 0428 3B1C     		mov	r3, r7
 905 042a 0F33     		add	r3, r3, #15
 906 042c 1B78     		ldrb	r3, [r3]
 907 042e D318     		add	r3, r2, r3
 908 0430 DB78     		ldrb	r3, [r3, #3]
 909 0432 1B02     		lsl	r3, r3, #8
 910 0434 181C     		mov	r0, r3
 911 0436 6421     		mov	r1, #100
 912 0438 FFF7FEFF 		bl	__aeabi_idiv
 913 043c 031C     		mov	r3, r0
 914 043e DBB2     		uxtb	r3, r3
 915 0440 181C     		mov	r0, r3
 916 0442 FFF7FEFF 		bl	PWM_GREEN_WriteCompare
 187:.\main.c      ****                 PWM_GREEN_Enable();
 917              		.loc 1 187 0
 918 0446 FFF7FEFF 		bl	PWM_GREEN_Enable
 188:.\main.c      ****                 printf("GREEN led pwm duty is %d\r\n",(uint8)(g_pconf_cmd->pwm[i]));
 919              		.loc 1 188 0
 920 044a 8A4B     		ldr	r3, .L52+4
 921 044c 1A68     		ldr	r2, [r3]
 922 044e 3B1C     		mov	r3, r7
 923 0450 0F33     		add	r3, r3, #15
 924 0452 1B78     		ldrb	r3, [r3]
 925 0454 D318     		add	r3, r2, r3
 926 0456 DB78     		ldrb	r3, [r3, #3]
 927 0458 874A     		ldr	r2, .L52+8
 928 045a 101C     		mov	r0, r2
 929 045c 191C     		mov	r1, r3
 930 045e FFF7FEFF 		bl	printf
 189:.\main.c      ****                 j=(g_pconf_cmd->acqnum_h<<8) + g_pconf_cmd->acqnum_l;
 931              		.loc 1 189 0
 932 0462 844B     		ldr	r3, .L52+4
 933 0464 1B68     		ldr	r3, [r3]
 934 0466 5B78     		ldrb	r3, [r3, #1]
ARM GAS  C:\Users\wzh\AppData\Local\Temp\cc8gjj2g.s 			page 22


 935 0468 1B02     		lsl	r3, r3, #8
 936 046a 99B2     		uxth	r1, r3
 937 046c 814B     		ldr	r3, .L52+4
 938 046e 1B68     		ldr	r3, [r3]
 939 0470 9B78     		ldrb	r3, [r3, #2]
 940 0472 1A1C     		mov	r2, r3
 941 0474 3B1C     		mov	r3, r7
 942 0476 0C33     		add	r3, r3, #12
 943 0478 8A18     		add	r2, r1, r2
 944 047a 1A80     		strh	r2, [r3]
 190:.\main.c      ****                 while(j--)   Data_Acquire_and_Print();
 945              		.loc 1 190 0
 946 047c 01E0     		b	.L40
 947              	.L41:
 948              		.loc 1 190 0 is_stmt 0 discriminator 2
 949 047e FFF7FEFF 		bl	Data_Acquire_and_Print
 950              	.L40:
 951              		.loc 1 190 0 discriminator 1
 952 0482 3B1C     		mov	r3, r7
 953 0484 0C33     		add	r3, r3, #12
 954 0486 1B88     		ldrh	r3, [r3]
 955 0488 3A1C     		mov	r2, r7
 956 048a 0C32     		add	r2, r2, #12
 957 048c 591E     		sub	r1, r3, #1
 958 048e 1180     		strh	r1, [r2]
 959 0490 002B     		cmp	r3, #0
 960 0492 F4D1     		bne	.L41
 191:.\main.c      ****                 printf("\r\n\r\n\r\n");
 961              		.loc 1 191 0 is_stmt 1
 962 0494 764B     		ldr	r3, .L52
 963 0496 181C     		mov	r0, r3
 964 0498 FFF7FEFF 		bl	puts
 192:.\main.c      ****                 
 193:.\main.c      ****                 /*RED led*/
 194:.\main.c      ****                 PWM_GREEN_Stop();//  
 965              		.loc 1 194 0
 966 049c FFF7FEFF 		bl	PWM_GREEN_Stop
 195:.\main.c      ****                 PWM_NIR1_Stop();
 967              		.loc 1 195 0
 968 04a0 FFF7FEFF 		bl	PWM_NIR1_Stop
 196:.\main.c      ****                 PWM_IR_AND_RED_WriteCompare1((uint8)((g_pconf_cmd->pwm[i]<<8)/100));  //RED LED PWM
 969              		.loc 1 196 0
 970 04a4 734B     		ldr	r3, .L52+4
 971 04a6 1A68     		ldr	r2, [r3]
 972 04a8 3B1C     		mov	r3, r7
 973 04aa 0F33     		add	r3, r3, #15
 974 04ac 1B78     		ldrb	r3, [r3]
 975 04ae D318     		add	r3, r2, r3
 976 04b0 DB78     		ldrb	r3, [r3, #3]
 977 04b2 1B02     		lsl	r3, r3, #8
 978 04b4 181C     		mov	r0, r3
 979 04b6 6421     		mov	r1, #100
 980 04b8 FFF7FEFF 		bl	__aeabi_idiv
 981 04bc 031C     		mov	r3, r0
 982 04be DBB2     		uxtb	r3, r3
 983 04c0 181C     		mov	r0, r3
 984 04c2 FFF7FEFF 		bl	PWM_IR_AND_RED_WriteCompare1
ARM GAS  C:\Users\wzh\AppData\Local\Temp\cc8gjj2g.s 			page 23


 197:.\main.c      ****                 PWM_IR_AND_RED_WriteCompare2(0);
 985              		.loc 1 197 0
 986 04c6 0020     		mov	r0, #0
 987 04c8 FFF7FEFF 		bl	PWM_IR_AND_RED_WriteCompare2
 198:.\main.c      ****                 PWM_IR_AND_RED_Enable();
 988              		.loc 1 198 0
 989 04cc FFF7FEFF 		bl	PWM_IR_AND_RED_Enable
 199:.\main.c      ****                 printf("RED led pwm duty is %d \r\n",(uint8)g_pconf_cmd->pwm[i]);
 990              		.loc 1 199 0
 991 04d0 684B     		ldr	r3, .L52+4
 992 04d2 1A68     		ldr	r2, [r3]
 993 04d4 3B1C     		mov	r3, r7
 994 04d6 0F33     		add	r3, r3, #15
 995 04d8 1B78     		ldrb	r3, [r3]
 996 04da D318     		add	r3, r2, r3
 997 04dc DB78     		ldrb	r3, [r3, #3]
 998 04de 674A     		ldr	r2, .L52+12
 999 04e0 101C     		mov	r0, r2
 1000 04e2 191C     		mov	r1, r3
 1001 04e4 FFF7FEFF 		bl	printf
 200:.\main.c      ****                 j=(g_pconf_cmd->acqnum_h<<8) + g_pconf_cmd->acqnum_l;
 1002              		.loc 1 200 0
 1003 04e8 624B     		ldr	r3, .L52+4
 1004 04ea 1B68     		ldr	r3, [r3]
 1005 04ec 5B78     		ldrb	r3, [r3, #1]
 1006 04ee 1B02     		lsl	r3, r3, #8
 1007 04f0 99B2     		uxth	r1, r3
 1008 04f2 604B     		ldr	r3, .L52+4
 1009 04f4 1B68     		ldr	r3, [r3]
 1010 04f6 9B78     		ldrb	r3, [r3, #2]
 1011 04f8 1A1C     		mov	r2, r3
 1012 04fa 3B1C     		mov	r3, r7
 1013 04fc 0C33     		add	r3, r3, #12
 1014 04fe 8A18     		add	r2, r1, r2
 1015 0500 1A80     		strh	r2, [r3]
 201:.\main.c      ****                 while(j--)  Data_Acquire_and_Print();
 1016              		.loc 1 201 0
 1017 0502 01E0     		b	.L42
 1018              	.L43:
 1019              		.loc 1 201 0 is_stmt 0 discriminator 2
 1020 0504 FFF7FEFF 		bl	Data_Acquire_and_Print
 1021              	.L42:
 1022              		.loc 1 201 0 discriminator 1
 1023 0508 3B1C     		mov	r3, r7
 1024 050a 0C33     		add	r3, r3, #12
 1025 050c 1B88     		ldrh	r3, [r3]
 1026 050e 3A1C     		mov	r2, r7
 1027 0510 0C32     		add	r2, r2, #12
 1028 0512 591E     		sub	r1, r3, #1
 1029 0514 1180     		strh	r1, [r2]
 1030 0516 002B     		cmp	r3, #0
 1031 0518 F4D1     		bne	.L43
 202:.\main.c      ****                 printf("\r\n\r\n\r\n");
 1032              		.loc 1 202 0 is_stmt 1
 1033 051a 554B     		ldr	r3, .L52
 1034 051c 181C     		mov	r0, r3
 1035 051e FFF7FEFF 		bl	puts
ARM GAS  C:\Users\wzh\AppData\Local\Temp\cc8gjj2g.s 			page 24


 203:.\main.c      ****                 
 204:.\main.c      ****                 PWM_IR_AND_RED_WriteCompare2((uint8)((g_pconf_cmd->pwm[i]<<8)/100)); //IR LED
 1036              		.loc 1 204 0
 1037 0522 544B     		ldr	r3, .L52+4
 1038 0524 1A68     		ldr	r2, [r3]
 1039 0526 3B1C     		mov	r3, r7
 1040 0528 0F33     		add	r3, r3, #15
 1041 052a 1B78     		ldrb	r3, [r3]
 1042 052c D318     		add	r3, r2, r3
 1043 052e DB78     		ldrb	r3, [r3, #3]
 1044 0530 1B02     		lsl	r3, r3, #8
 1045 0532 181C     		mov	r0, r3
 1046 0534 6421     		mov	r1, #100
 1047 0536 FFF7FEFF 		bl	__aeabi_idiv
 1048 053a 031C     		mov	r3, r0
 1049 053c DBB2     		uxtb	r3, r3
 1050 053e 181C     		mov	r0, r3
 1051 0540 FFF7FEFF 		bl	PWM_IR_AND_RED_WriteCompare2
 205:.\main.c      ****                 PWM_IR_AND_RED_WriteCompare1(0);
 1052              		.loc 1 205 0
 1053 0544 0020     		mov	r0, #0
 1054 0546 FFF7FEFF 		bl	PWM_IR_AND_RED_WriteCompare1
 206:.\main.c      ****                 PWM_IR_AND_RED_Enable();
 1055              		.loc 1 206 0
 1056 054a FFF7FEFF 		bl	PWM_IR_AND_RED_Enable
 207:.\main.c      ****                 printf("IR led pwm duty is %d \r\n",(uint8)g_pconf_cmd->pwm[i]);
 1057              		.loc 1 207 0
 1058 054e 494B     		ldr	r3, .L52+4
 1059 0550 1A68     		ldr	r2, [r3]
 1060 0552 3B1C     		mov	r3, r7
 1061 0554 0F33     		add	r3, r3, #15
 1062 0556 1B78     		ldrb	r3, [r3]
 1063 0558 D318     		add	r3, r2, r3
 1064 055a DB78     		ldrb	r3, [r3, #3]
 1065 055c 484A     		ldr	r2, .L52+16
 1066 055e 101C     		mov	r0, r2
 1067 0560 191C     		mov	r1, r3
 1068 0562 FFF7FEFF 		bl	printf
 208:.\main.c      ****                 j=(g_pconf_cmd->acqnum_h<<8) + g_pconf_cmd->acqnum_l;
 1069              		.loc 1 208 0
 1070 0566 434B     		ldr	r3, .L52+4
 1071 0568 1B68     		ldr	r3, [r3]
 1072 056a 5B78     		ldrb	r3, [r3, #1]
 1073 056c 1B02     		lsl	r3, r3, #8
 1074 056e 99B2     		uxth	r1, r3
 1075 0570 404B     		ldr	r3, .L52+4
 1076 0572 1B68     		ldr	r3, [r3]
 1077 0574 9B78     		ldrb	r3, [r3, #2]
 1078 0576 1A1C     		mov	r2, r3
 1079 0578 3B1C     		mov	r3, r7
 1080 057a 0C33     		add	r3, r3, #12
 1081 057c 8A18     		add	r2, r1, r2
 1082 057e 1A80     		strh	r2, [r3]
 209:.\main.c      ****                 while(j--)  Data_Acquire_and_Print();
 1083              		.loc 1 209 0
 1084 0580 01E0     		b	.L44
 1085              	.L45:
ARM GAS  C:\Users\wzh\AppData\Local\Temp\cc8gjj2g.s 			page 25


 1086              		.loc 1 209 0 is_stmt 0 discriminator 2
 1087 0582 FFF7FEFF 		bl	Data_Acquire_and_Print
 1088              	.L44:
 1089              		.loc 1 209 0 discriminator 1
 1090 0586 3B1C     		mov	r3, r7
 1091 0588 0C33     		add	r3, r3, #12
 1092 058a 1B88     		ldrh	r3, [r3]
 1093 058c 3A1C     		mov	r2, r7
 1094 058e 0C32     		add	r2, r2, #12
 1095 0590 591E     		sub	r1, r3, #1
 1096 0592 1180     		strh	r1, [r2]
 1097 0594 002B     		cmp	r3, #0
 1098 0596 F4D1     		bne	.L45
 210:.\main.c      ****                 printf("\r\n\r\n\r\n");
 1099              		.loc 1 210 0 is_stmt 1
 1100 0598 354B     		ldr	r3, .L52
 1101 059a 181C     		mov	r0, r3
 1102 059c FFF7FEFF 		bl	puts
 211:.\main.c      ****                 
 212:.\main.c      ****                 /*NIR led*/
 213:.\main.c      ****                 PWM_GREEN_Stop();//  
 1103              		.loc 1 213 0
 1104 05a0 FFF7FEFF 		bl	PWM_GREEN_Stop
 214:.\main.c      ****                 PWM_IR_AND_RED_Stop();
 1105              		.loc 1 214 0
 1106 05a4 FFF7FEFF 		bl	PWM_IR_AND_RED_Stop
 215:.\main.c      ****                 PWM_NIR1_WriteCompare2((uint8)((g_pconf_cmd->pwm[i]<<8)/100));  //two NIR LED drivi
 1107              		.loc 1 215 0
 1108 05a8 324B     		ldr	r3, .L52+4
 1109 05aa 1A68     		ldr	r2, [r3]
 1110 05ac 3B1C     		mov	r3, r7
 1111 05ae 0F33     		add	r3, r3, #15
 1112 05b0 1B78     		ldrb	r3, [r3]
 1113 05b2 D318     		add	r3, r2, r3
 1114 05b4 DB78     		ldrb	r3, [r3, #3]
 1115 05b6 1B02     		lsl	r3, r3, #8
 1116 05b8 181C     		mov	r0, r3
 1117 05ba 6421     		mov	r1, #100
 1118 05bc FFF7FEFF 		bl	__aeabi_idiv
 1119 05c0 031C     		mov	r3, r0
 1120 05c2 DBB2     		uxtb	r3, r3
 1121 05c4 181C     		mov	r0, r3
 1122 05c6 FFF7FEFF 		bl	PWM_NIR1_WriteCompare2
 216:.\main.c      ****                 PWM_NIR1_WriteCompare1((uint8)((g_pconf_cmd->pwm[i]<<8)/100));
 1123              		.loc 1 216 0
 1124 05ca 2A4B     		ldr	r3, .L52+4
 1125 05cc 1A68     		ldr	r2, [r3]
 1126 05ce 3B1C     		mov	r3, r7
 1127 05d0 0F33     		add	r3, r3, #15
 1128 05d2 1B78     		ldrb	r3, [r3]
 1129 05d4 D318     		add	r3, r2, r3
 1130 05d6 DB78     		ldrb	r3, [r3, #3]
 1131 05d8 1B02     		lsl	r3, r3, #8
 1132 05da 181C     		mov	r0, r3
 1133 05dc 6421     		mov	r1, #100
 1134 05de FFF7FEFF 		bl	__aeabi_idiv
 1135 05e2 031C     		mov	r3, r0
ARM GAS  C:\Users\wzh\AppData\Local\Temp\cc8gjj2g.s 			page 26


 1136 05e4 DBB2     		uxtb	r3, r3
 1137 05e6 181C     		mov	r0, r3
 1138 05e8 FFF7FEFF 		bl	PWM_NIR1_WriteCompare1
 217:.\main.c      ****                 PWM_NIR1_Enable();
 1139              		.loc 1 217 0
 1140 05ec FFF7FEFF 		bl	PWM_NIR1_Enable
 218:.\main.c      ****                 printf("NIR led pwm duty is %d \r\n",(uint8)g_pconf_cmd->pwm[i]);
 1141              		.loc 1 218 0
 1142 05f0 204B     		ldr	r3, .L52+4
 1143 05f2 1A68     		ldr	r2, [r3]
 1144 05f4 3B1C     		mov	r3, r7
 1145 05f6 0F33     		add	r3, r3, #15
 1146 05f8 1B78     		ldrb	r3, [r3]
 1147 05fa D318     		add	r3, r2, r3
 1148 05fc DB78     		ldrb	r3, [r3, #3]
 1149 05fe 214A     		ldr	r2, .L52+20
 1150 0600 101C     		mov	r0, r2
 1151 0602 191C     		mov	r1, r3
 1152 0604 FFF7FEFF 		bl	printf
 219:.\main.c      ****                 j=(g_pconf_cmd->acqnum_h<<8) + g_pconf_cmd->acqnum_l;
 1153              		.loc 1 219 0
 1154 0608 1A4B     		ldr	r3, .L52+4
 1155 060a 1B68     		ldr	r3, [r3]
 1156 060c 5B78     		ldrb	r3, [r3, #1]
 1157 060e 1B02     		lsl	r3, r3, #8
 1158 0610 99B2     		uxth	r1, r3
 1159 0612 184B     		ldr	r3, .L52+4
 1160 0614 1B68     		ldr	r3, [r3]
 1161 0616 9B78     		ldrb	r3, [r3, #2]
 1162 0618 1A1C     		mov	r2, r3
 1163 061a 3B1C     		mov	r3, r7
 1164 061c 0C33     		add	r3, r3, #12
 1165 061e 8A18     		add	r2, r1, r2
 1166 0620 1A80     		strh	r2, [r3]
 220:.\main.c      ****                 while(j--)  Data_Acquire_and_Print();
 1167              		.loc 1 220 0
 1168 0622 01E0     		b	.L46
 1169              	.L47:
 1170              		.loc 1 220 0 is_stmt 0 discriminator 2
 1171 0624 FFF7FEFF 		bl	Data_Acquire_and_Print
 1172              	.L46:
 1173              		.loc 1 220 0 discriminator 1
 1174 0628 3B1C     		mov	r3, r7
 1175 062a 0C33     		add	r3, r3, #12
 1176 062c 1B88     		ldrh	r3, [r3]
 1177 062e 3A1C     		mov	r2, r7
 1178 0630 0C32     		add	r2, r2, #12
 1179 0632 591E     		sub	r1, r3, #1
 1180 0634 1180     		strh	r1, [r2]
 1181 0636 002B     		cmp	r3, #0
 1182 0638 F4D1     		bne	.L47
 221:.\main.c      ****                 printf("\r\n\r\n\r\n");
 1183              		.loc 1 221 0 is_stmt 1
 1184 063a 0D4B     		ldr	r3, .L52
 1185 063c 181C     		mov	r0, r3
 1186 063e FFF7FEFF 		bl	puts
 222:.\main.c      ****                  
ARM GAS  C:\Users\wzh\AppData\Local\Temp\cc8gjj2g.s 			page 27


 223:.\main.c      ****                 i++;
 1187              		.loc 1 223 0
 1188 0642 3B1C     		mov	r3, r7
 1189 0644 0F33     		add	r3, r3, #15
 1190 0646 1A78     		ldrb	r2, [r3]
 1191 0648 3B1C     		mov	r3, r7
 1192 064a 0F33     		add	r3, r3, #15
 1193 064c 0132     		add	r2, r2, #1
 1194 064e 1A70     		strb	r2, [r3]
 1195              	.L39:
 181:.\main.c      ****             while((g_pconf_cmd->pwm[i]!=0) && (i<8))
 1196              		.loc 1 181 0 discriminator 1
 1197 0650 084B     		ldr	r3, .L52+4
 1198 0652 1A68     		ldr	r2, [r3]
 1199 0654 3B1C     		mov	r3, r7
 1200 0656 0F33     		add	r3, r3, #15
 1201 0658 1B78     		ldrb	r3, [r3]
 1202 065a D318     		add	r3, r2, r3
 1203 065c DB78     		ldrb	r3, [r3, #3]
 1204 065e 002B     		cmp	r3, #0
 1205 0660 05D0     		beq	.L18
 181:.\main.c      ****             while((g_pconf_cmd->pwm[i]!=0) && (i<8))
 1206              		.loc 1 181 0 is_stmt 0 discriminator 2
 1207 0662 3B1C     		mov	r3, r7
 1208 0664 0F33     		add	r3, r3, #15
 1209 0666 1B78     		ldrb	r3, [r3]
 1210 0668 072B     		cmp	r3, #7
 1211 066a 00D8     		bhi	.LCB988
 1212 066c D6E6     		b	.L48	@long jump
 1213              	.LCB988:
 1214              	.L18:
 224:.\main.c      ****             }
 225:.\main.c      ****         }
 226:.\main.c      ****         
 227:.\main.c      ****         }    
 228:.\main.c      ****      }
 1215              		.loc 1 228 0 is_stmt 1
 1216 066e F2E4     		b	.L49
 1217              	.L53:
 1218              		.align	2
 1219              	.L52:
 1220 0670 F8000000 		.word	.LC24
 1221 0674 00000000 		.word	g_pconf_cmd
 1222 0678 DC000000 		.word	.LC22
 1223 067c 00010000 		.word	.LC26
 1224 0680 1C010000 		.word	.LC28
 1225 0684 38010000 		.word	.LC30
 1226              		.cfi_endproc
 1227              	.LFE37:
 1228              		.size	main, .-main
 1229              		.bss
 1230              		.align	2
 1231              	p.6177:
 1232 0000 00000000 		.space	4
 1233              		.text
 1234              	.Letext0:
 1235              		.file 2 ".\\Generated_Source\\PSoC4/cytypes.h"
ARM GAS  C:\Users\wzh\AppData\Local\Temp\cc8gjj2g.s 			page 28


 1236              		.file 3 ".\\config_cmd.h"