ARM GAS  C:\Users\wzh\AppData\Local\Temp\ccbPi7hd.s 			page 1


   1              		.cpu cortex-m0
   2              		.fpu softvfp
   3              		.eabi_attribute 20, 1
   4              		.eabi_attribute 21, 1
   5              		.eabi_attribute 23, 3
   6              		.eabi_attribute 24, 1
   7              		.eabi_attribute 25, 1
   8              		.eabi_attribute 26, 1
   9              		.eabi_attribute 30, 6
  10              		.eabi_attribute 34, 0
  11              		.eabi_attribute 18, 4
  12              		.code	16
  13              		.file	"PWM_GREEN.c"
  14              		.text
  15              	.Ltext0:
  16              		.cfi_sections	.debug_frame
  17              		.global	PWM_GREEN_initVar
  18              		.bss
  19              		.type	PWM_GREEN_initVar, %object
  20              		.size	PWM_GREEN_initVar, 1
  21              	PWM_GREEN_initVar:
  22 0000 00       		.space	1
  23              		.section	.text.PWM_GREEN_Start,"ax",%progbits
  24              		.align	2
  25              		.global	PWM_GREEN_Start
  26              		.code	16
  27              		.thumb_func
  28              		.type	PWM_GREEN_Start, %function
  29              	PWM_GREEN_Start:
  30              	.LFB2:
  31              		.file 1 ".\\Generated_Source\\PSoC4\\PWM_GREEN.c"
   1:.\Generated_Source\PSoC4/PWM_GREEN.c **** /*******************************************************************************
   2:.\Generated_Source\PSoC4/PWM_GREEN.c **** * File Name: PWM_GREEN.c
   3:.\Generated_Source\PSoC4/PWM_GREEN.c **** * Version 3.10
   4:.\Generated_Source\PSoC4/PWM_GREEN.c **** *
   5:.\Generated_Source\PSoC4/PWM_GREEN.c **** * Description:
   6:.\Generated_Source\PSoC4/PWM_GREEN.c **** *  The PWM User Module consist of an 8 or 16-bit counter with two 8 or 16-bit
   7:.\Generated_Source\PSoC4/PWM_GREEN.c **** *  comparitors. Each instance of this user module is capable of generating
   8:.\Generated_Source\PSoC4/PWM_GREEN.c **** *  two PWM outputs with the same period. The pulse width is selectable between
   9:.\Generated_Source\PSoC4/PWM_GREEN.c **** *  1 and 255/65535. The period is selectable between 2 and 255/65536 clocks.
  10:.\Generated_Source\PSoC4/PWM_GREEN.c **** *  The compare value output may be configured to be active when the present
  11:.\Generated_Source\PSoC4/PWM_GREEN.c **** *  counter is less than or less than/equal to the compare value.
  12:.\Generated_Source\PSoC4/PWM_GREEN.c **** *  A terminal count output is also provided. It generates a pulse one clock
  13:.\Generated_Source\PSoC4/PWM_GREEN.c **** *  width wide when the counter is equal to zero.
  14:.\Generated_Source\PSoC4/PWM_GREEN.c **** *
  15:.\Generated_Source\PSoC4/PWM_GREEN.c **** * Note:
  16:.\Generated_Source\PSoC4/PWM_GREEN.c **** *
  17:.\Generated_Source\PSoC4/PWM_GREEN.c **** *******************************************************************************
  18:.\Generated_Source\PSoC4/PWM_GREEN.c **** * Copyright 2008-2014, Cypress Semiconductor Corporation.  All rights reserved.
  19:.\Generated_Source\PSoC4/PWM_GREEN.c **** * You may use this file only in accordance with the license, terms, conditions,
  20:.\Generated_Source\PSoC4/PWM_GREEN.c **** * disclaimers, and limitations in the end user license agreement accompanying
  21:.\Generated_Source\PSoC4/PWM_GREEN.c **** * the software package with which this file was provided.
  22:.\Generated_Source\PSoC4/PWM_GREEN.c **** ********************************************************************************/
  23:.\Generated_Source\PSoC4/PWM_GREEN.c **** 
  24:.\Generated_Source\PSoC4/PWM_GREEN.c **** #include "PWM_GREEN.h"
  25:.\Generated_Source\PSoC4/PWM_GREEN.c **** 
  26:.\Generated_Source\PSoC4/PWM_GREEN.c **** /* Error message for removed <resource> through optimization */
ARM GAS  C:\Users\wzh\AppData\Local\Temp\ccbPi7hd.s 			page 2


  27:.\Generated_Source\PSoC4/PWM_GREEN.c **** #ifdef PWM_GREEN_PWMUDB_genblk1_ctrlreg__REMOVED
  28:.\Generated_Source\PSoC4/PWM_GREEN.c ****     #error PWM_v3_10 detected with a constant 0 for the enable or \
  29:.\Generated_Source\PSoC4/PWM_GREEN.c ****          constant 1 for reset. This will prevent the component from operating.
  30:.\Generated_Source\PSoC4/PWM_GREEN.c **** #endif /* PWM_GREEN_PWMUDB_genblk1_ctrlreg__REMOVED */
  31:.\Generated_Source\PSoC4/PWM_GREEN.c **** 
  32:.\Generated_Source\PSoC4/PWM_GREEN.c **** uint8 PWM_GREEN_initVar = 0u;
  33:.\Generated_Source\PSoC4/PWM_GREEN.c **** 
  34:.\Generated_Source\PSoC4/PWM_GREEN.c **** 
  35:.\Generated_Source\PSoC4/PWM_GREEN.c **** /*******************************************************************************
  36:.\Generated_Source\PSoC4/PWM_GREEN.c **** * Function Name: PWM_GREEN_Start
  37:.\Generated_Source\PSoC4/PWM_GREEN.c **** ********************************************************************************
  38:.\Generated_Source\PSoC4/PWM_GREEN.c **** *
  39:.\Generated_Source\PSoC4/PWM_GREEN.c **** * Summary:
  40:.\Generated_Source\PSoC4/PWM_GREEN.c **** *  The start function initializes the pwm with the default values, the
  41:.\Generated_Source\PSoC4/PWM_GREEN.c **** *  enables the counter to begin counting.  It does not enable interrupts,
  42:.\Generated_Source\PSoC4/PWM_GREEN.c **** *  the EnableInt command should be called if interrupt generation is required.
  43:.\Generated_Source\PSoC4/PWM_GREEN.c **** *
  44:.\Generated_Source\PSoC4/PWM_GREEN.c **** * Parameters:
  45:.\Generated_Source\PSoC4/PWM_GREEN.c **** *  None
  46:.\Generated_Source\PSoC4/PWM_GREEN.c **** *
  47:.\Generated_Source\PSoC4/PWM_GREEN.c **** * Return:
  48:.\Generated_Source\PSoC4/PWM_GREEN.c **** *  None
  49:.\Generated_Source\PSoC4/PWM_GREEN.c **** *
  50:.\Generated_Source\PSoC4/PWM_GREEN.c **** * Global variables:
  51:.\Generated_Source\PSoC4/PWM_GREEN.c **** *  PWM_GREEN_initVar: Is modified when this function is called for the
  52:.\Generated_Source\PSoC4/PWM_GREEN.c **** *   first time. Is used to ensure that initialization happens only once.
  53:.\Generated_Source\PSoC4/PWM_GREEN.c **** *
  54:.\Generated_Source\PSoC4/PWM_GREEN.c **** *******************************************************************************/
  55:.\Generated_Source\PSoC4/PWM_GREEN.c **** void PWM_GREEN_Start(void) 
  56:.\Generated_Source\PSoC4/PWM_GREEN.c **** {
  32              		.loc 1 56 0
  33              		.cfi_startproc
  34 0000 80B5     		push	{r7, lr}
  35              		.cfi_def_cfa_offset 8
  36              		.cfi_offset 7, -8
  37              		.cfi_offset 14, -4
  38 0002 00AF     		add	r7, sp, #0
  39              		.cfi_def_cfa_register 7
  57:.\Generated_Source\PSoC4/PWM_GREEN.c ****     /* If not Initialized then initialize all required hardware and software */
  58:.\Generated_Source\PSoC4/PWM_GREEN.c ****     if(PWM_GREEN_initVar == 0u)
  40              		.loc 1 58 0
  41 0004 064B     		ldr	r3, .L3
  42 0006 1B78     		ldrb	r3, [r3]
  43 0008 002B     		cmp	r3, #0
  44 000a 04D1     		bne	.L2
  59:.\Generated_Source\PSoC4/PWM_GREEN.c ****     {
  60:.\Generated_Source\PSoC4/PWM_GREEN.c ****         PWM_GREEN_Init();
  45              		.loc 1 60 0
  46 000c FFF7FEFF 		bl	PWM_GREEN_Init
  61:.\Generated_Source\PSoC4/PWM_GREEN.c ****         PWM_GREEN_initVar = 1u;
  47              		.loc 1 61 0
  48 0010 034B     		ldr	r3, .L3
  49 0012 0122     		mov	r2, #1
  50 0014 1A70     		strb	r2, [r3]
  51              	.L2:
  62:.\Generated_Source\PSoC4/PWM_GREEN.c ****     }
  63:.\Generated_Source\PSoC4/PWM_GREEN.c ****     PWM_GREEN_Enable();
ARM GAS  C:\Users\wzh\AppData\Local\Temp\ccbPi7hd.s 			page 3


  52              		.loc 1 63 0
  53 0016 FFF7FEFF 		bl	PWM_GREEN_Enable
  64:.\Generated_Source\PSoC4/PWM_GREEN.c **** 
  65:.\Generated_Source\PSoC4/PWM_GREEN.c **** }
  54              		.loc 1 65 0
  55 001a BD46     		mov	sp, r7
  56              		@ sp needed
  57 001c 80BD     		pop	{r7, pc}
  58              	.L4:
  59 001e C046     		.align	2
  60              	.L3:
  61 0020 00000000 		.word	PWM_GREEN_initVar
  62              		.cfi_endproc
  63              	.LFE2:
  64              		.size	PWM_GREEN_Start, .-PWM_GREEN_Start
  65              		.section	.text.PWM_GREEN_Init,"ax",%progbits
  66              		.align	2
  67              		.global	PWM_GREEN_Init
  68              		.code	16
  69              		.thumb_func
  70              		.type	PWM_GREEN_Init, %function
  71              	PWM_GREEN_Init:
  72              	.LFB3:
  66:.\Generated_Source\PSoC4/PWM_GREEN.c **** 
  67:.\Generated_Source\PSoC4/PWM_GREEN.c **** 
  68:.\Generated_Source\PSoC4/PWM_GREEN.c **** /*******************************************************************************
  69:.\Generated_Source\PSoC4/PWM_GREEN.c **** * Function Name: PWM_GREEN_Init
  70:.\Generated_Source\PSoC4/PWM_GREEN.c **** ********************************************************************************
  71:.\Generated_Source\PSoC4/PWM_GREEN.c **** *
  72:.\Generated_Source\PSoC4/PWM_GREEN.c **** * Summary:
  73:.\Generated_Source\PSoC4/PWM_GREEN.c **** *  Initialize component's parameters to the parameters set by user in the
  74:.\Generated_Source\PSoC4/PWM_GREEN.c **** *  customizer of the component placed onto schematic. Usually called in
  75:.\Generated_Source\PSoC4/PWM_GREEN.c **** *  PWM_GREEN_Start().
  76:.\Generated_Source\PSoC4/PWM_GREEN.c **** *
  77:.\Generated_Source\PSoC4/PWM_GREEN.c **** * Parameters:
  78:.\Generated_Source\PSoC4/PWM_GREEN.c **** *  None
  79:.\Generated_Source\PSoC4/PWM_GREEN.c **** *
  80:.\Generated_Source\PSoC4/PWM_GREEN.c **** * Return:
  81:.\Generated_Source\PSoC4/PWM_GREEN.c **** *  None
  82:.\Generated_Source\PSoC4/PWM_GREEN.c **** *
  83:.\Generated_Source\PSoC4/PWM_GREEN.c **** *******************************************************************************/
  84:.\Generated_Source\PSoC4/PWM_GREEN.c **** void PWM_GREEN_Init(void) 
  85:.\Generated_Source\PSoC4/PWM_GREEN.c **** {
  73              		.loc 1 85 0
  74              		.cfi_startproc
  75 0000 80B5     		push	{r7, lr}
  76              		.cfi_def_cfa_offset 8
  77              		.cfi_offset 7, -8
  78              		.cfi_offset 14, -4
  79 0002 82B0     		sub	sp, sp, #8
  80              		.cfi_def_cfa_offset 16
  81 0004 00AF     		add	r7, sp, #0
  82              		.cfi_def_cfa_register 7
  86:.\Generated_Source\PSoC4/PWM_GREEN.c ****     #if (PWM_GREEN_UsingFixedFunction || PWM_GREEN_UseControl)
  87:.\Generated_Source\PSoC4/PWM_GREEN.c ****         uint8 ctrl;
  88:.\Generated_Source\PSoC4/PWM_GREEN.c ****     #endif /* (PWM_GREEN_UsingFixedFunction || PWM_GREEN_UseControl) */
  89:.\Generated_Source\PSoC4/PWM_GREEN.c **** 
ARM GAS  C:\Users\wzh\AppData\Local\Temp\ccbPi7hd.s 			page 4


  90:.\Generated_Source\PSoC4/PWM_GREEN.c ****     #if(!PWM_GREEN_UsingFixedFunction)
  91:.\Generated_Source\PSoC4/PWM_GREEN.c ****         #if(PWM_GREEN_UseStatus)
  92:.\Generated_Source\PSoC4/PWM_GREEN.c ****             /* Interrupt State Backup for Critical Region*/
  93:.\Generated_Source\PSoC4/PWM_GREEN.c ****             uint8 PWM_GREEN_interruptState;
  94:.\Generated_Source\PSoC4/PWM_GREEN.c ****         #endif /* (PWM_GREEN_UseStatus) */
  95:.\Generated_Source\PSoC4/PWM_GREEN.c ****     #endif /* (!PWM_GREEN_UsingFixedFunction) */
  96:.\Generated_Source\PSoC4/PWM_GREEN.c **** 
  97:.\Generated_Source\PSoC4/PWM_GREEN.c ****     #if (PWM_GREEN_UsingFixedFunction)
  98:.\Generated_Source\PSoC4/PWM_GREEN.c ****         /* You are allowed to write the compare value (FF only) */
  99:.\Generated_Source\PSoC4/PWM_GREEN.c ****         PWM_GREEN_CONTROL |= PWM_GREEN_CFG0_MODE;
 100:.\Generated_Source\PSoC4/PWM_GREEN.c ****         #if (PWM_GREEN_DeadBand2_4)
 101:.\Generated_Source\PSoC4/PWM_GREEN.c ****             PWM_GREEN_CONTROL |= PWM_GREEN_CFG0_DB;
 102:.\Generated_Source\PSoC4/PWM_GREEN.c ****         #endif /* (PWM_GREEN_DeadBand2_4) */
 103:.\Generated_Source\PSoC4/PWM_GREEN.c **** 
 104:.\Generated_Source\PSoC4/PWM_GREEN.c ****         ctrl = PWM_GREEN_CONTROL3 & ((uint8 )(~PWM_GREEN_CTRL_CMPMODE1_MASK));
 105:.\Generated_Source\PSoC4/PWM_GREEN.c ****         PWM_GREEN_CONTROL3 = ctrl | PWM_GREEN_DEFAULT_COMPARE1_MODE;
 106:.\Generated_Source\PSoC4/PWM_GREEN.c **** 
 107:.\Generated_Source\PSoC4/PWM_GREEN.c ****          /* Clear and Set SYNCTC and SYNCCMP bits of RT1 register */
 108:.\Generated_Source\PSoC4/PWM_GREEN.c ****         PWM_GREEN_RT1 &= ((uint8)(~PWM_GREEN_RT1_MASK));
 109:.\Generated_Source\PSoC4/PWM_GREEN.c ****         PWM_GREEN_RT1 |= PWM_GREEN_SYNC;
 110:.\Generated_Source\PSoC4/PWM_GREEN.c **** 
 111:.\Generated_Source\PSoC4/PWM_GREEN.c ****         /*Enable DSI Sync all all inputs of the PWM*/
 112:.\Generated_Source\PSoC4/PWM_GREEN.c ****         PWM_GREEN_RT1 &= ((uint8)(~PWM_GREEN_SYNCDSI_MASK));
 113:.\Generated_Source\PSoC4/PWM_GREEN.c ****         PWM_GREEN_RT1 |= PWM_GREEN_SYNCDSI_EN;
 114:.\Generated_Source\PSoC4/PWM_GREEN.c **** 
 115:.\Generated_Source\PSoC4/PWM_GREEN.c ****     #elif (PWM_GREEN_UseControl)
 116:.\Generated_Source\PSoC4/PWM_GREEN.c ****         /* Set the default compare mode defined in the parameter */
 117:.\Generated_Source\PSoC4/PWM_GREEN.c ****         ctrl = PWM_GREEN_CONTROL & ((uint8)(~PWM_GREEN_CTRL_CMPMODE2_MASK)) &
  83              		.loc 1 117 0
  84 0006 114B     		ldr	r3, .L6
  85 0008 1B78     		ldrb	r3, [r3]
  86 000a DAB2     		uxtb	r2, r3
  87 000c FB1D     		add	r3, r7, #7
  88 000e 3F21     		mov	r1, #63
  89 0010 8A43     		bic	r2, r1
  90 0012 1A70     		strb	r2, [r3]
 118:.\Generated_Source\PSoC4/PWM_GREEN.c ****                 ((uint8)(~PWM_GREEN_CTRL_CMPMODE1_MASK));
 119:.\Generated_Source\PSoC4/PWM_GREEN.c ****         PWM_GREEN_CONTROL = ctrl | PWM_GREEN_DEFAULT_COMPARE2_MODE |
  91              		.loc 1 119 0
  92 0014 0D4B     		ldr	r3, .L6
  93 0016 FA1D     		add	r2, r7, #7
  94 0018 1278     		ldrb	r2, [r2]
  95 001a 0921     		mov	r1, #9
  96 001c 0A43     		orr	r2, r1
  97 001e D2B2     		uxtb	r2, r2
  98 0020 1A70     		strb	r2, [r3]
 120:.\Generated_Source\PSoC4/PWM_GREEN.c ****                                    PWM_GREEN_DEFAULT_COMPARE1_MODE;
 121:.\Generated_Source\PSoC4/PWM_GREEN.c ****     #endif /* (PWM_GREEN_UsingFixedFunction) */
 122:.\Generated_Source\PSoC4/PWM_GREEN.c **** 
 123:.\Generated_Source\PSoC4/PWM_GREEN.c ****     #if (!PWM_GREEN_UsingFixedFunction)
 124:.\Generated_Source\PSoC4/PWM_GREEN.c ****         #if (PWM_GREEN_Resolution == 8)
 125:.\Generated_Source\PSoC4/PWM_GREEN.c ****             /* Set FIFO 0 to 1 byte register for period*/
 126:.\Generated_Source\PSoC4/PWM_GREEN.c ****             PWM_GREEN_AUX_CONTROLDP0 |= (PWM_GREEN_AUX_CTRL_FIFO0_CLR);
  99              		.loc 1 126 0
 100 0022 0B4B     		ldr	r3, .L6+4
 101 0024 0A4A     		ldr	r2, .L6+4
 102 0026 1278     		ldrb	r2, [r2]
ARM GAS  C:\Users\wzh\AppData\Local\Temp\ccbPi7hd.s 			page 5


 103 0028 D2B2     		uxtb	r2, r2
 104 002a 0121     		mov	r1, #1
 105 002c 0A43     		orr	r2, r1
 106 002e D2B2     		uxtb	r2, r2
 107 0030 1A70     		strb	r2, [r3]
 127:.\Generated_Source\PSoC4/PWM_GREEN.c ****         #else /* (PWM_GREEN_Resolution == 16)*/
 128:.\Generated_Source\PSoC4/PWM_GREEN.c ****             /* Set FIFO 0 to 1 byte register for period */
 129:.\Generated_Source\PSoC4/PWM_GREEN.c ****             PWM_GREEN_AUX_CONTROLDP0 |= (PWM_GREEN_AUX_CTRL_FIFO0_CLR);
 130:.\Generated_Source\PSoC4/PWM_GREEN.c ****             PWM_GREEN_AUX_CONTROLDP1 |= (PWM_GREEN_AUX_CTRL_FIFO0_CLR);
 131:.\Generated_Source\PSoC4/PWM_GREEN.c ****         #endif /* (PWM_GREEN_Resolution == 8) */
 132:.\Generated_Source\PSoC4/PWM_GREEN.c **** 
 133:.\Generated_Source\PSoC4/PWM_GREEN.c ****         PWM_GREEN_WriteCounter(PWM_GREEN_INIT_PERIOD_VALUE);
 108              		.loc 1 133 0
 109 0032 FF20     		mov	r0, #255
 110 0034 FFF7FEFF 		bl	PWM_GREEN_WriteCounter
 134:.\Generated_Source\PSoC4/PWM_GREEN.c ****     #endif /* (!PWM_GREEN_UsingFixedFunction) */
 135:.\Generated_Source\PSoC4/PWM_GREEN.c **** 
 136:.\Generated_Source\PSoC4/PWM_GREEN.c ****     PWM_GREEN_WritePeriod(PWM_GREEN_INIT_PERIOD_VALUE);
 111              		.loc 1 136 0
 112 0038 FF20     		mov	r0, #255
 113 003a FFF7FEFF 		bl	PWM_GREEN_WritePeriod
 137:.\Generated_Source\PSoC4/PWM_GREEN.c **** 
 138:.\Generated_Source\PSoC4/PWM_GREEN.c ****         #if (PWM_GREEN_UseOneCompareMode)
 139:.\Generated_Source\PSoC4/PWM_GREEN.c ****             PWM_GREEN_WriteCompare(PWM_GREEN_INIT_COMPARE_VALUE1);
 114              		.loc 1 139 0
 115 003e 7F20     		mov	r0, #127
 116 0040 FFF7FEFF 		bl	PWM_GREEN_WriteCompare
 140:.\Generated_Source\PSoC4/PWM_GREEN.c ****         #else
 141:.\Generated_Source\PSoC4/PWM_GREEN.c ****             PWM_GREEN_WriteCompare1(PWM_GREEN_INIT_COMPARE_VALUE1);
 142:.\Generated_Source\PSoC4/PWM_GREEN.c ****             PWM_GREEN_WriteCompare2(PWM_GREEN_INIT_COMPARE_VALUE2);
 143:.\Generated_Source\PSoC4/PWM_GREEN.c ****         #endif /* (PWM_GREEN_UseOneCompareMode) */
 144:.\Generated_Source\PSoC4/PWM_GREEN.c **** 
 145:.\Generated_Source\PSoC4/PWM_GREEN.c ****         #if (PWM_GREEN_KillModeMinTime)
 146:.\Generated_Source\PSoC4/PWM_GREEN.c ****             PWM_GREEN_WriteKillTime(PWM_GREEN_MinimumKillTime);
 147:.\Generated_Source\PSoC4/PWM_GREEN.c ****         #endif /* (PWM_GREEN_KillModeMinTime) */
 148:.\Generated_Source\PSoC4/PWM_GREEN.c **** 
 149:.\Generated_Source\PSoC4/PWM_GREEN.c ****         #if (PWM_GREEN_DeadBandUsed)
 150:.\Generated_Source\PSoC4/PWM_GREEN.c ****             PWM_GREEN_WriteDeadTime(PWM_GREEN_INIT_DEAD_TIME);
 151:.\Generated_Source\PSoC4/PWM_GREEN.c ****         #endif /* (PWM_GREEN_DeadBandUsed) */
 152:.\Generated_Source\PSoC4/PWM_GREEN.c **** 
 153:.\Generated_Source\PSoC4/PWM_GREEN.c ****     #if (PWM_GREEN_UseStatus || PWM_GREEN_UsingFixedFunction)
 154:.\Generated_Source\PSoC4/PWM_GREEN.c ****         PWM_GREEN_SetInterruptMode(PWM_GREEN_INIT_INTERRUPTS_MODE);
 155:.\Generated_Source\PSoC4/PWM_GREEN.c ****     #endif /* (PWM_GREEN_UseStatus || PWM_GREEN_UsingFixedFunction) */
 156:.\Generated_Source\PSoC4/PWM_GREEN.c **** 
 157:.\Generated_Source\PSoC4/PWM_GREEN.c ****     #if (PWM_GREEN_UsingFixedFunction)
 158:.\Generated_Source\PSoC4/PWM_GREEN.c ****         /* Globally Enable the Fixed Function Block chosen */
 159:.\Generated_Source\PSoC4/PWM_GREEN.c ****         PWM_GREEN_GLOBAL_ENABLE |= PWM_GREEN_BLOCK_EN_MASK;
 160:.\Generated_Source\PSoC4/PWM_GREEN.c ****         /* Set the Interrupt source to come from the status register */
 161:.\Generated_Source\PSoC4/PWM_GREEN.c ****         PWM_GREEN_CONTROL2 |= PWM_GREEN_CTRL2_IRQ_SEL;
 162:.\Generated_Source\PSoC4/PWM_GREEN.c ****     #else
 163:.\Generated_Source\PSoC4/PWM_GREEN.c ****         #if(PWM_GREEN_UseStatus)
 164:.\Generated_Source\PSoC4/PWM_GREEN.c **** 
 165:.\Generated_Source\PSoC4/PWM_GREEN.c ****             /* CyEnterCriticalRegion and CyExitCriticalRegion are used to mark following region cri
 166:.\Generated_Source\PSoC4/PWM_GREEN.c ****             /* Enter Critical Region*/
 167:.\Generated_Source\PSoC4/PWM_GREEN.c ****             PWM_GREEN_interruptState = CyEnterCriticalSection();
 168:.\Generated_Source\PSoC4/PWM_GREEN.c ****             /* Use the interrupt output of the status register for IRQ output */
 169:.\Generated_Source\PSoC4/PWM_GREEN.c ****             PWM_GREEN_STATUS_AUX_CTRL |= PWM_GREEN_STATUS_ACTL_INT_EN_MASK;
ARM GAS  C:\Users\wzh\AppData\Local\Temp\ccbPi7hd.s 			page 6


 170:.\Generated_Source\PSoC4/PWM_GREEN.c **** 
 171:.\Generated_Source\PSoC4/PWM_GREEN.c ****              /* Exit Critical Region*/
 172:.\Generated_Source\PSoC4/PWM_GREEN.c ****             CyExitCriticalSection(PWM_GREEN_interruptState);
 173:.\Generated_Source\PSoC4/PWM_GREEN.c **** 
 174:.\Generated_Source\PSoC4/PWM_GREEN.c ****             /* Clear the FIFO to enable the PWM_GREEN_STATUS_FIFOFULL
 175:.\Generated_Source\PSoC4/PWM_GREEN.c ****                    bit to be set on FIFO full. */
 176:.\Generated_Source\PSoC4/PWM_GREEN.c ****             PWM_GREEN_ClearFIFO();
 177:.\Generated_Source\PSoC4/PWM_GREEN.c ****         #endif /* (PWM_GREEN_UseStatus) */
 178:.\Generated_Source\PSoC4/PWM_GREEN.c ****     #endif /* (PWM_GREEN_UsingFixedFunction) */
 179:.\Generated_Source\PSoC4/PWM_GREEN.c **** }
 117              		.loc 1 179 0
 118 0044 BD46     		mov	sp, r7
 119 0046 02B0     		add	sp, sp, #8
 120              		@ sp needed
 121 0048 80BD     		pop	{r7, pc}
 122              	.L7:
 123 004a C046     		.align	2
 124              	.L6:
 125 004c 72000F40 		.word	1074724978
 126 0050 92000F40 		.word	1074725010
 127              		.cfi_endproc
 128              	.LFE3:
 129              		.size	PWM_GREEN_Init, .-PWM_GREEN_Init
 130              		.section	.text.PWM_GREEN_Enable,"ax",%progbits
 131              		.align	2
 132              		.global	PWM_GREEN_Enable
 133              		.code	16
 134              		.thumb_func
 135              		.type	PWM_GREEN_Enable, %function
 136              	PWM_GREEN_Enable:
 137              	.LFB4:
 180:.\Generated_Source\PSoC4/PWM_GREEN.c **** 
 181:.\Generated_Source\PSoC4/PWM_GREEN.c **** 
 182:.\Generated_Source\PSoC4/PWM_GREEN.c **** /*******************************************************************************
 183:.\Generated_Source\PSoC4/PWM_GREEN.c **** * Function Name: PWM_GREEN_Enable
 184:.\Generated_Source\PSoC4/PWM_GREEN.c **** ********************************************************************************
 185:.\Generated_Source\PSoC4/PWM_GREEN.c **** *
 186:.\Generated_Source\PSoC4/PWM_GREEN.c **** * Summary:
 187:.\Generated_Source\PSoC4/PWM_GREEN.c **** *  Enables the PWM block operation
 188:.\Generated_Source\PSoC4/PWM_GREEN.c **** *
 189:.\Generated_Source\PSoC4/PWM_GREEN.c **** * Parameters:
 190:.\Generated_Source\PSoC4/PWM_GREEN.c **** *  None
 191:.\Generated_Source\PSoC4/PWM_GREEN.c **** *
 192:.\Generated_Source\PSoC4/PWM_GREEN.c **** * Return:
 193:.\Generated_Source\PSoC4/PWM_GREEN.c **** *  None
 194:.\Generated_Source\PSoC4/PWM_GREEN.c **** *
 195:.\Generated_Source\PSoC4/PWM_GREEN.c **** * Side Effects:
 196:.\Generated_Source\PSoC4/PWM_GREEN.c **** *  This works only if software enable mode is chosen
 197:.\Generated_Source\PSoC4/PWM_GREEN.c **** *
 198:.\Generated_Source\PSoC4/PWM_GREEN.c **** *******************************************************************************/
 199:.\Generated_Source\PSoC4/PWM_GREEN.c **** void PWM_GREEN_Enable(void) 
 200:.\Generated_Source\PSoC4/PWM_GREEN.c **** {
 138              		.loc 1 200 0
 139              		.cfi_startproc
 140 0000 80B5     		push	{r7, lr}
 141              		.cfi_def_cfa_offset 8
 142              		.cfi_offset 7, -8
ARM GAS  C:\Users\wzh\AppData\Local\Temp\ccbPi7hd.s 			page 7


 143              		.cfi_offset 14, -4
 144 0002 00AF     		add	r7, sp, #0
 145              		.cfi_def_cfa_register 7
 201:.\Generated_Source\PSoC4/PWM_GREEN.c ****     /* Globally Enable the Fixed Function Block chosen */
 202:.\Generated_Source\PSoC4/PWM_GREEN.c ****     #if (PWM_GREEN_UsingFixedFunction)
 203:.\Generated_Source\PSoC4/PWM_GREEN.c ****         PWM_GREEN_GLOBAL_ENABLE |= PWM_GREEN_BLOCK_EN_MASK;
 204:.\Generated_Source\PSoC4/PWM_GREEN.c ****         PWM_GREEN_GLOBAL_STBY_ENABLE |= PWM_GREEN_BLOCK_STBY_EN_MASK;
 205:.\Generated_Source\PSoC4/PWM_GREEN.c ****     #endif /* (PWM_GREEN_UsingFixedFunction) */
 206:.\Generated_Source\PSoC4/PWM_GREEN.c **** 
 207:.\Generated_Source\PSoC4/PWM_GREEN.c ****     /* Enable the PWM from the control register  */
 208:.\Generated_Source\PSoC4/PWM_GREEN.c ****     #if (PWM_GREEN_UseControl || PWM_GREEN_UsingFixedFunction)
 209:.\Generated_Source\PSoC4/PWM_GREEN.c ****         PWM_GREEN_CONTROL |= PWM_GREEN_CTRL_ENABLE;
 146              		.loc 1 209 0
 147 0004 054B     		ldr	r3, .L9
 148 0006 054A     		ldr	r2, .L9
 149 0008 1278     		ldrb	r2, [r2]
 150 000a D2B2     		uxtb	r2, r2
 151 000c 8021     		mov	r1, #128
 152 000e 4942     		neg	r1, r1
 153 0010 0A43     		orr	r2, r1
 154 0012 D2B2     		uxtb	r2, r2
 155 0014 1A70     		strb	r2, [r3]
 210:.\Generated_Source\PSoC4/PWM_GREEN.c ****     #endif /* (PWM_GREEN_UseControl || PWM_GREEN_UsingFixedFunction) */
 211:.\Generated_Source\PSoC4/PWM_GREEN.c **** }
 156              		.loc 1 211 0
 157 0016 BD46     		mov	sp, r7
 158              		@ sp needed
 159 0018 80BD     		pop	{r7, pc}
 160              	.L10:
 161 001a C046     		.align	2
 162              	.L9:
 163 001c 72000F40 		.word	1074724978
 164              		.cfi_endproc
 165              	.LFE4:
 166              		.size	PWM_GREEN_Enable, .-PWM_GREEN_Enable
 167              		.section	.text.PWM_GREEN_Stop,"ax",%progbits
 168              		.align	2
 169              		.global	PWM_GREEN_Stop
 170              		.code	16
 171              		.thumb_func
 172              		.type	PWM_GREEN_Stop, %function
 173              	PWM_GREEN_Stop:
 174              	.LFB5:
 212:.\Generated_Source\PSoC4/PWM_GREEN.c **** 
 213:.\Generated_Source\PSoC4/PWM_GREEN.c **** 
 214:.\Generated_Source\PSoC4/PWM_GREEN.c **** /*******************************************************************************
 215:.\Generated_Source\PSoC4/PWM_GREEN.c **** * Function Name: PWM_GREEN_Stop
 216:.\Generated_Source\PSoC4/PWM_GREEN.c **** ********************************************************************************
 217:.\Generated_Source\PSoC4/PWM_GREEN.c **** *
 218:.\Generated_Source\PSoC4/PWM_GREEN.c **** * Summary:
 219:.\Generated_Source\PSoC4/PWM_GREEN.c **** *  The stop function halts the PWM, but does not change any modes or disable
 220:.\Generated_Source\PSoC4/PWM_GREEN.c **** *  interrupts.
 221:.\Generated_Source\PSoC4/PWM_GREEN.c **** *
 222:.\Generated_Source\PSoC4/PWM_GREEN.c **** * Parameters:
 223:.\Generated_Source\PSoC4/PWM_GREEN.c **** *  None
 224:.\Generated_Source\PSoC4/PWM_GREEN.c **** *
 225:.\Generated_Source\PSoC4/PWM_GREEN.c **** * Return:
ARM GAS  C:\Users\wzh\AppData\Local\Temp\ccbPi7hd.s 			page 8


 226:.\Generated_Source\PSoC4/PWM_GREEN.c **** *  None
 227:.\Generated_Source\PSoC4/PWM_GREEN.c **** *
 228:.\Generated_Source\PSoC4/PWM_GREEN.c **** * Side Effects:
 229:.\Generated_Source\PSoC4/PWM_GREEN.c **** *  If the Enable mode is set to Hardware only then this function
 230:.\Generated_Source\PSoC4/PWM_GREEN.c **** *  has no effect on the operation of the PWM
 231:.\Generated_Source\PSoC4/PWM_GREEN.c **** *
 232:.\Generated_Source\PSoC4/PWM_GREEN.c **** *******************************************************************************/
 233:.\Generated_Source\PSoC4/PWM_GREEN.c **** void PWM_GREEN_Stop(void) 
 234:.\Generated_Source\PSoC4/PWM_GREEN.c **** {
 175              		.loc 1 234 0
 176              		.cfi_startproc
 177 0000 80B5     		push	{r7, lr}
 178              		.cfi_def_cfa_offset 8
 179              		.cfi_offset 7, -8
 180              		.cfi_offset 14, -4
 181 0002 00AF     		add	r7, sp, #0
 182              		.cfi_def_cfa_register 7
 235:.\Generated_Source\PSoC4/PWM_GREEN.c ****     #if (PWM_GREEN_UseControl || PWM_GREEN_UsingFixedFunction)
 236:.\Generated_Source\PSoC4/PWM_GREEN.c ****         PWM_GREEN_CONTROL &= ((uint8)(~PWM_GREEN_CTRL_ENABLE));
 183              		.loc 1 236 0
 184 0004 044B     		ldr	r3, .L12
 185 0006 044A     		ldr	r2, .L12
 186 0008 1278     		ldrb	r2, [r2]
 187 000a D1B2     		uxtb	r1, r2
 188 000c 7F22     		mov	r2, #127
 189 000e 0A40     		and	r2, r1
 190 0010 D2B2     		uxtb	r2, r2
 191 0012 1A70     		strb	r2, [r3]
 237:.\Generated_Source\PSoC4/PWM_GREEN.c ****     #endif /* (PWM_GREEN_UseControl || PWM_GREEN_UsingFixedFunction) */
 238:.\Generated_Source\PSoC4/PWM_GREEN.c **** 
 239:.\Generated_Source\PSoC4/PWM_GREEN.c ****     /* Globally disable the Fixed Function Block chosen */
 240:.\Generated_Source\PSoC4/PWM_GREEN.c ****     #if (PWM_GREEN_UsingFixedFunction)
 241:.\Generated_Source\PSoC4/PWM_GREEN.c ****         PWM_GREEN_GLOBAL_ENABLE &= ((uint8)(~PWM_GREEN_BLOCK_EN_MASK));
 242:.\Generated_Source\PSoC4/PWM_GREEN.c ****         PWM_GREEN_GLOBAL_STBY_ENABLE &= ((uint8)(~PWM_GREEN_BLOCK_STBY_EN_MASK));
 243:.\Generated_Source\PSoC4/PWM_GREEN.c ****     #endif /* (PWM_GREEN_UsingFixedFunction) */
 244:.\Generated_Source\PSoC4/PWM_GREEN.c **** }
 192              		.loc 1 244 0
 193 0014 BD46     		mov	sp, r7
 194              		@ sp needed
 195 0016 80BD     		pop	{r7, pc}
 196              	.L13:
 197              		.align	2
 198              	.L12:
 199 0018 72000F40 		.word	1074724978
 200              		.cfi_endproc
 201              	.LFE5:
 202              		.size	PWM_GREEN_Stop, .-PWM_GREEN_Stop
 203              		.section	.text.PWM_GREEN_WriteCounter,"ax",%progbits
 204              		.align	2
 205              		.global	PWM_GREEN_WriteCounter
 206              		.code	16
 207              		.thumb_func
 208              		.type	PWM_GREEN_WriteCounter, %function
 209              	PWM_GREEN_WriteCounter:
 210              	.LFB6:
 245:.\Generated_Source\PSoC4/PWM_GREEN.c **** 
 246:.\Generated_Source\PSoC4/PWM_GREEN.c **** #if (PWM_GREEN_UseOneCompareMode)
ARM GAS  C:\Users\wzh\AppData\Local\Temp\ccbPi7hd.s 			page 9


 247:.\Generated_Source\PSoC4/PWM_GREEN.c ****     #if (PWM_GREEN_CompareMode1SW)
 248:.\Generated_Source\PSoC4/PWM_GREEN.c **** 
 249:.\Generated_Source\PSoC4/PWM_GREEN.c **** 
 250:.\Generated_Source\PSoC4/PWM_GREEN.c ****         /*******************************************************************************
 251:.\Generated_Source\PSoC4/PWM_GREEN.c ****         * Function Name: PWM_GREEN_SetCompareMode
 252:.\Generated_Source\PSoC4/PWM_GREEN.c ****         ********************************************************************************
 253:.\Generated_Source\PSoC4/PWM_GREEN.c ****         *
 254:.\Generated_Source\PSoC4/PWM_GREEN.c ****         * Summary:
 255:.\Generated_Source\PSoC4/PWM_GREEN.c ****         *  This function writes the Compare Mode for the pwm output when in Dither mode,
 256:.\Generated_Source\PSoC4/PWM_GREEN.c ****         *  Center Align Mode or One Output Mode.
 257:.\Generated_Source\PSoC4/PWM_GREEN.c ****         *
 258:.\Generated_Source\PSoC4/PWM_GREEN.c ****         * Parameters:
 259:.\Generated_Source\PSoC4/PWM_GREEN.c ****         *  comparemode:  The new compare mode for the PWM output. Use the compare types
 260:.\Generated_Source\PSoC4/PWM_GREEN.c ****         *                defined in the H file as input arguments.
 261:.\Generated_Source\PSoC4/PWM_GREEN.c ****         *
 262:.\Generated_Source\PSoC4/PWM_GREEN.c ****         * Return:
 263:.\Generated_Source\PSoC4/PWM_GREEN.c ****         *  None
 264:.\Generated_Source\PSoC4/PWM_GREEN.c ****         *
 265:.\Generated_Source\PSoC4/PWM_GREEN.c ****         *******************************************************************************/
 266:.\Generated_Source\PSoC4/PWM_GREEN.c ****         void PWM_GREEN_SetCompareMode(uint8 comparemode) 
 267:.\Generated_Source\PSoC4/PWM_GREEN.c ****         {
 268:.\Generated_Source\PSoC4/PWM_GREEN.c ****             #if(PWM_GREEN_UsingFixedFunction)
 269:.\Generated_Source\PSoC4/PWM_GREEN.c **** 
 270:.\Generated_Source\PSoC4/PWM_GREEN.c ****                 #if(0 != PWM_GREEN_CTRL_CMPMODE1_SHIFT)
 271:.\Generated_Source\PSoC4/PWM_GREEN.c ****                     uint8 comparemodemasked = ((uint8)((uint8)comparemode << PWM_GREEN_CTRL_CMPMODE
 272:.\Generated_Source\PSoC4/PWM_GREEN.c ****                 #else
 273:.\Generated_Source\PSoC4/PWM_GREEN.c ****                     uint8 comparemodemasked = comparemode;
 274:.\Generated_Source\PSoC4/PWM_GREEN.c ****                 #endif /* (0 != PWM_GREEN_CTRL_CMPMODE1_SHIFT) */
 275:.\Generated_Source\PSoC4/PWM_GREEN.c **** 
 276:.\Generated_Source\PSoC4/PWM_GREEN.c ****                 PWM_GREEN_CONTROL3 &= ((uint8)(~PWM_GREEN_CTRL_CMPMODE1_MASK)); /*Clear Existing Da
 277:.\Generated_Source\PSoC4/PWM_GREEN.c ****                 PWM_GREEN_CONTROL3 |= comparemodemasked;
 278:.\Generated_Source\PSoC4/PWM_GREEN.c **** 
 279:.\Generated_Source\PSoC4/PWM_GREEN.c ****             #elif (PWM_GREEN_UseControl)
 280:.\Generated_Source\PSoC4/PWM_GREEN.c **** 
 281:.\Generated_Source\PSoC4/PWM_GREEN.c ****                 #if(0 != PWM_GREEN_CTRL_CMPMODE1_SHIFT)
 282:.\Generated_Source\PSoC4/PWM_GREEN.c ****                     uint8 comparemode1masked = ((uint8)((uint8)comparemode << PWM_GREEN_CTRL_CMPMOD
 283:.\Generated_Source\PSoC4/PWM_GREEN.c ****                                                 PWM_GREEN_CTRL_CMPMODE1_MASK;
 284:.\Generated_Source\PSoC4/PWM_GREEN.c ****                 #else
 285:.\Generated_Source\PSoC4/PWM_GREEN.c ****                     uint8 comparemode1masked = comparemode & PWM_GREEN_CTRL_CMPMODE1_MASK;
 286:.\Generated_Source\PSoC4/PWM_GREEN.c ****                 #endif /* (0 != PWM_GREEN_CTRL_CMPMODE1_SHIFT) */
 287:.\Generated_Source\PSoC4/PWM_GREEN.c **** 
 288:.\Generated_Source\PSoC4/PWM_GREEN.c ****                 #if(0 != PWM_GREEN_CTRL_CMPMODE2_SHIFT)
 289:.\Generated_Source\PSoC4/PWM_GREEN.c ****                     uint8 comparemode2masked = ((uint8)((uint8)comparemode << PWM_GREEN_CTRL_CMPMOD
 290:.\Generated_Source\PSoC4/PWM_GREEN.c ****                                                PWM_GREEN_CTRL_CMPMODE2_MASK;
 291:.\Generated_Source\PSoC4/PWM_GREEN.c ****                 #else
 292:.\Generated_Source\PSoC4/PWM_GREEN.c ****                     uint8 comparemode2masked = comparemode & PWM_GREEN_CTRL_CMPMODE2_MASK;
 293:.\Generated_Source\PSoC4/PWM_GREEN.c ****                 #endif /* (0 != PWM_GREEN_CTRL_CMPMODE2_SHIFT) */
 294:.\Generated_Source\PSoC4/PWM_GREEN.c **** 
 295:.\Generated_Source\PSoC4/PWM_GREEN.c ****                 /*Clear existing mode */
 296:.\Generated_Source\PSoC4/PWM_GREEN.c ****                 PWM_GREEN_CONTROL &= ((uint8)(~(PWM_GREEN_CTRL_CMPMODE1_MASK |
 297:.\Generated_Source\PSoC4/PWM_GREEN.c ****                                             PWM_GREEN_CTRL_CMPMODE2_MASK)));
 298:.\Generated_Source\PSoC4/PWM_GREEN.c ****                 PWM_GREEN_CONTROL |= (comparemode1masked | comparemode2masked);
 299:.\Generated_Source\PSoC4/PWM_GREEN.c **** 
 300:.\Generated_Source\PSoC4/PWM_GREEN.c ****             #else
 301:.\Generated_Source\PSoC4/PWM_GREEN.c ****                 uint8 temp = comparemode;
 302:.\Generated_Source\PSoC4/PWM_GREEN.c ****             #endif /* (PWM_GREEN_UsingFixedFunction) */
 303:.\Generated_Source\PSoC4/PWM_GREEN.c ****         }
ARM GAS  C:\Users\wzh\AppData\Local\Temp\ccbPi7hd.s 			page 10


 304:.\Generated_Source\PSoC4/PWM_GREEN.c ****     #endif /* PWM_GREEN_CompareMode1SW */
 305:.\Generated_Source\PSoC4/PWM_GREEN.c **** 
 306:.\Generated_Source\PSoC4/PWM_GREEN.c **** #else /* UseOneCompareMode */
 307:.\Generated_Source\PSoC4/PWM_GREEN.c **** 
 308:.\Generated_Source\PSoC4/PWM_GREEN.c ****     #if (PWM_GREEN_CompareMode1SW)
 309:.\Generated_Source\PSoC4/PWM_GREEN.c **** 
 310:.\Generated_Source\PSoC4/PWM_GREEN.c **** 
 311:.\Generated_Source\PSoC4/PWM_GREEN.c ****         /*******************************************************************************
 312:.\Generated_Source\PSoC4/PWM_GREEN.c ****         * Function Name: PWM_GREEN_SetCompareMode1
 313:.\Generated_Source\PSoC4/PWM_GREEN.c ****         ********************************************************************************
 314:.\Generated_Source\PSoC4/PWM_GREEN.c ****         *
 315:.\Generated_Source\PSoC4/PWM_GREEN.c ****         * Summary:
 316:.\Generated_Source\PSoC4/PWM_GREEN.c ****         *  This function writes the Compare Mode for the pwm or pwm1 output
 317:.\Generated_Source\PSoC4/PWM_GREEN.c ****         *
 318:.\Generated_Source\PSoC4/PWM_GREEN.c ****         * Parameters:
 319:.\Generated_Source\PSoC4/PWM_GREEN.c ****         *  comparemode:  The new compare mode for the PWM output. Use the compare types
 320:.\Generated_Source\PSoC4/PWM_GREEN.c ****         *                defined in the H file as input arguments.
 321:.\Generated_Source\PSoC4/PWM_GREEN.c ****         *
 322:.\Generated_Source\PSoC4/PWM_GREEN.c ****         * Return:
 323:.\Generated_Source\PSoC4/PWM_GREEN.c ****         *  None
 324:.\Generated_Source\PSoC4/PWM_GREEN.c ****         *
 325:.\Generated_Source\PSoC4/PWM_GREEN.c ****         *******************************************************************************/
 326:.\Generated_Source\PSoC4/PWM_GREEN.c ****         void PWM_GREEN_SetCompareMode1(uint8 comparemode) 
 327:.\Generated_Source\PSoC4/PWM_GREEN.c ****         {
 328:.\Generated_Source\PSoC4/PWM_GREEN.c ****             #if(0 != PWM_GREEN_CTRL_CMPMODE1_SHIFT)
 329:.\Generated_Source\PSoC4/PWM_GREEN.c ****                 uint8 comparemodemasked = ((uint8)((uint8)comparemode << PWM_GREEN_CTRL_CMPMODE1_SH
 330:.\Generated_Source\PSoC4/PWM_GREEN.c ****                                            PWM_GREEN_CTRL_CMPMODE1_MASK;
 331:.\Generated_Source\PSoC4/PWM_GREEN.c ****             #else
 332:.\Generated_Source\PSoC4/PWM_GREEN.c ****                 uint8 comparemodemasked = comparemode & PWM_GREEN_CTRL_CMPMODE1_MASK;
 333:.\Generated_Source\PSoC4/PWM_GREEN.c ****             #endif /* (0 != PWM_GREEN_CTRL_CMPMODE1_SHIFT) */
 334:.\Generated_Source\PSoC4/PWM_GREEN.c **** 
 335:.\Generated_Source\PSoC4/PWM_GREEN.c ****             #if (PWM_GREEN_UseControl)
 336:.\Generated_Source\PSoC4/PWM_GREEN.c ****                 PWM_GREEN_CONTROL &= ((uint8)(~PWM_GREEN_CTRL_CMPMODE1_MASK)); /*Clear existing mod
 337:.\Generated_Source\PSoC4/PWM_GREEN.c ****                 PWM_GREEN_CONTROL |= comparemodemasked;
 338:.\Generated_Source\PSoC4/PWM_GREEN.c ****             #endif /* (PWM_GREEN_UseControl) */
 339:.\Generated_Source\PSoC4/PWM_GREEN.c ****         }
 340:.\Generated_Source\PSoC4/PWM_GREEN.c ****     #endif /* PWM_GREEN_CompareMode1SW */
 341:.\Generated_Source\PSoC4/PWM_GREEN.c **** 
 342:.\Generated_Source\PSoC4/PWM_GREEN.c **** #if (PWM_GREEN_CompareMode2SW)
 343:.\Generated_Source\PSoC4/PWM_GREEN.c **** 
 344:.\Generated_Source\PSoC4/PWM_GREEN.c **** 
 345:.\Generated_Source\PSoC4/PWM_GREEN.c ****     /*******************************************************************************
 346:.\Generated_Source\PSoC4/PWM_GREEN.c ****     * Function Name: PWM_GREEN_SetCompareMode2
 347:.\Generated_Source\PSoC4/PWM_GREEN.c ****     ********************************************************************************
 348:.\Generated_Source\PSoC4/PWM_GREEN.c ****     *
 349:.\Generated_Source\PSoC4/PWM_GREEN.c ****     * Summary:
 350:.\Generated_Source\PSoC4/PWM_GREEN.c ****     *  This function writes the Compare Mode for the pwm or pwm2 output
 351:.\Generated_Source\PSoC4/PWM_GREEN.c ****     *
 352:.\Generated_Source\PSoC4/PWM_GREEN.c ****     * Parameters:
 353:.\Generated_Source\PSoC4/PWM_GREEN.c ****     *  comparemode:  The new compare mode for the PWM output. Use the compare types
 354:.\Generated_Source\PSoC4/PWM_GREEN.c ****     *                defined in the H file as input arguments.
 355:.\Generated_Source\PSoC4/PWM_GREEN.c ****     *
 356:.\Generated_Source\PSoC4/PWM_GREEN.c ****     * Return:
 357:.\Generated_Source\PSoC4/PWM_GREEN.c ****     *  None
 358:.\Generated_Source\PSoC4/PWM_GREEN.c ****     *
 359:.\Generated_Source\PSoC4/PWM_GREEN.c ****     *******************************************************************************/
 360:.\Generated_Source\PSoC4/PWM_GREEN.c ****     void PWM_GREEN_SetCompareMode2(uint8 comparemode) 
ARM GAS  C:\Users\wzh\AppData\Local\Temp\ccbPi7hd.s 			page 11


 361:.\Generated_Source\PSoC4/PWM_GREEN.c ****     {
 362:.\Generated_Source\PSoC4/PWM_GREEN.c **** 
 363:.\Generated_Source\PSoC4/PWM_GREEN.c ****         #if(0 != PWM_GREEN_CTRL_CMPMODE2_SHIFT)
 364:.\Generated_Source\PSoC4/PWM_GREEN.c ****             uint8 comparemodemasked = ((uint8)((uint8)comparemode << PWM_GREEN_CTRL_CMPMODE2_SHIFT)
 365:.\Generated_Source\PSoC4/PWM_GREEN.c ****                                                  PWM_GREEN_CTRL_CMPMODE2_MASK;
 366:.\Generated_Source\PSoC4/PWM_GREEN.c ****         #else
 367:.\Generated_Source\PSoC4/PWM_GREEN.c ****             uint8 comparemodemasked = comparemode & PWM_GREEN_CTRL_CMPMODE2_MASK;
 368:.\Generated_Source\PSoC4/PWM_GREEN.c ****         #endif /* (0 != PWM_GREEN_CTRL_CMPMODE2_SHIFT) */
 369:.\Generated_Source\PSoC4/PWM_GREEN.c **** 
 370:.\Generated_Source\PSoC4/PWM_GREEN.c ****         #if (PWM_GREEN_UseControl)
 371:.\Generated_Source\PSoC4/PWM_GREEN.c ****             PWM_GREEN_CONTROL &= ((uint8)(~PWM_GREEN_CTRL_CMPMODE2_MASK)); /*Clear existing mode */
 372:.\Generated_Source\PSoC4/PWM_GREEN.c ****             PWM_GREEN_CONTROL |= comparemodemasked;
 373:.\Generated_Source\PSoC4/PWM_GREEN.c ****         #endif /* (PWM_GREEN_UseControl) */
 374:.\Generated_Source\PSoC4/PWM_GREEN.c ****     }
 375:.\Generated_Source\PSoC4/PWM_GREEN.c ****     #endif /*PWM_GREEN_CompareMode2SW */
 376:.\Generated_Source\PSoC4/PWM_GREEN.c **** 
 377:.\Generated_Source\PSoC4/PWM_GREEN.c **** #endif /* UseOneCompareMode */
 378:.\Generated_Source\PSoC4/PWM_GREEN.c **** 
 379:.\Generated_Source\PSoC4/PWM_GREEN.c **** 
 380:.\Generated_Source\PSoC4/PWM_GREEN.c **** #if (!PWM_GREEN_UsingFixedFunction)
 381:.\Generated_Source\PSoC4/PWM_GREEN.c **** 
 382:.\Generated_Source\PSoC4/PWM_GREEN.c **** 
 383:.\Generated_Source\PSoC4/PWM_GREEN.c ****     /*******************************************************************************
 384:.\Generated_Source\PSoC4/PWM_GREEN.c ****     * Function Name: PWM_GREEN_WriteCounter
 385:.\Generated_Source\PSoC4/PWM_GREEN.c ****     ********************************************************************************
 386:.\Generated_Source\PSoC4/PWM_GREEN.c ****     *
 387:.\Generated_Source\PSoC4/PWM_GREEN.c ****     * Summary:
 388:.\Generated_Source\PSoC4/PWM_GREEN.c ****     *  Writes a new counter value directly to the counter register. This will be
 389:.\Generated_Source\PSoC4/PWM_GREEN.c ****     *  implemented for that currently running period and only that period. This API
 390:.\Generated_Source\PSoC4/PWM_GREEN.c ****     *  is valid only for UDB implementation and not available for fixed function
 391:.\Generated_Source\PSoC4/PWM_GREEN.c ****     *  PWM implementation.
 392:.\Generated_Source\PSoC4/PWM_GREEN.c ****     *
 393:.\Generated_Source\PSoC4/PWM_GREEN.c ****     * Parameters:
 394:.\Generated_Source\PSoC4/PWM_GREEN.c ****     *  counter:  The period new period counter value.
 395:.\Generated_Source\PSoC4/PWM_GREEN.c ****     *
 396:.\Generated_Source\PSoC4/PWM_GREEN.c ****     * Return:
 397:.\Generated_Source\PSoC4/PWM_GREEN.c ****     *  None
 398:.\Generated_Source\PSoC4/PWM_GREEN.c ****     *
 399:.\Generated_Source\PSoC4/PWM_GREEN.c ****     * Side Effects:
 400:.\Generated_Source\PSoC4/PWM_GREEN.c ****     *  The PWM Period will be reloaded when a counter value will be a zero
 401:.\Generated_Source\PSoC4/PWM_GREEN.c ****     *
 402:.\Generated_Source\PSoC4/PWM_GREEN.c ****     *******************************************************************************/
 403:.\Generated_Source\PSoC4/PWM_GREEN.c ****     void PWM_GREEN_WriteCounter(uint8 counter) \
 404:.\Generated_Source\PSoC4/PWM_GREEN.c ****                                        
 405:.\Generated_Source\PSoC4/PWM_GREEN.c ****     {
 211              		.loc 1 405 0
 212              		.cfi_startproc
 213 0000 80B5     		push	{r7, lr}
 214              		.cfi_def_cfa_offset 8
 215              		.cfi_offset 7, -8
 216              		.cfi_offset 14, -4
 217 0002 82B0     		sub	sp, sp, #8
 218              		.cfi_def_cfa_offset 16
 219 0004 00AF     		add	r7, sp, #0
 220              		.cfi_def_cfa_register 7
 221 0006 021C     		mov	r2, r0
 222 0008 FB1D     		add	r3, r7, #7
ARM GAS  C:\Users\wzh\AppData\Local\Temp\ccbPi7hd.s 			page 12


 223 000a 1A70     		strb	r2, [r3]
 406:.\Generated_Source\PSoC4/PWM_GREEN.c ****         CY_SET_REG8(PWM_GREEN_COUNTER_LSB_PTR, counter);
 224              		.loc 1 406 0
 225 000c 034B     		ldr	r3, .L15
 226 000e FA1D     		add	r2, r7, #7
 227 0010 1278     		ldrb	r2, [r2]
 228 0012 1A70     		strb	r2, [r3]
 407:.\Generated_Source\PSoC4/PWM_GREEN.c ****     }
 229              		.loc 1 407 0
 230 0014 BD46     		mov	sp, r7
 231 0016 02B0     		add	sp, sp, #8
 232              		@ sp needed
 233 0018 80BD     		pop	{r7, pc}
 234              	.L16:
 235 001a C046     		.align	2
 236              	.L15:
 237 001c 02000F40 		.word	1074724866
 238              		.cfi_endproc
 239              	.LFE6:
 240              		.size	PWM_GREEN_WriteCounter, .-PWM_GREEN_WriteCounter
 241              		.section	.text.PWM_GREEN_ReadCounter,"ax",%progbits
 242              		.align	2
 243              		.global	PWM_GREEN_ReadCounter
 244              		.code	16
 245              		.thumb_func
 246              		.type	PWM_GREEN_ReadCounter, %function
 247              	PWM_GREEN_ReadCounter:
 248              	.LFB7:
 408:.\Generated_Source\PSoC4/PWM_GREEN.c **** 
 409:.\Generated_Source\PSoC4/PWM_GREEN.c **** 
 410:.\Generated_Source\PSoC4/PWM_GREEN.c ****     /*******************************************************************************
 411:.\Generated_Source\PSoC4/PWM_GREEN.c ****     * Function Name: PWM_GREEN_ReadCounter
 412:.\Generated_Source\PSoC4/PWM_GREEN.c ****     ********************************************************************************
 413:.\Generated_Source\PSoC4/PWM_GREEN.c ****     *
 414:.\Generated_Source\PSoC4/PWM_GREEN.c ****     * Summary:
 415:.\Generated_Source\PSoC4/PWM_GREEN.c ****     *  This function returns the current value of the counter.  It doesn't matter
 416:.\Generated_Source\PSoC4/PWM_GREEN.c ****     *  if the counter is enabled or running.
 417:.\Generated_Source\PSoC4/PWM_GREEN.c ****     *
 418:.\Generated_Source\PSoC4/PWM_GREEN.c ****     * Parameters:
 419:.\Generated_Source\PSoC4/PWM_GREEN.c ****     *  None
 420:.\Generated_Source\PSoC4/PWM_GREEN.c ****     *
 421:.\Generated_Source\PSoC4/PWM_GREEN.c ****     * Return:
 422:.\Generated_Source\PSoC4/PWM_GREEN.c ****     *  The current value of the counter.
 423:.\Generated_Source\PSoC4/PWM_GREEN.c ****     *
 424:.\Generated_Source\PSoC4/PWM_GREEN.c ****     *******************************************************************************/
 425:.\Generated_Source\PSoC4/PWM_GREEN.c ****     uint8 PWM_GREEN_ReadCounter(void) 
 426:.\Generated_Source\PSoC4/PWM_GREEN.c ****     {
 249              		.loc 1 426 0
 250              		.cfi_startproc
 251 0000 80B5     		push	{r7, lr}
 252              		.cfi_def_cfa_offset 8
 253              		.cfi_offset 7, -8
 254              		.cfi_offset 14, -4
 255 0002 00AF     		add	r7, sp, #0
 256              		.cfi_def_cfa_register 7
 427:.\Generated_Source\PSoC4/PWM_GREEN.c ****         /* Force capture by reading Accumulator */
 428:.\Generated_Source\PSoC4/PWM_GREEN.c ****         /* Must first do a software capture to be able to read the counter */
ARM GAS  C:\Users\wzh\AppData\Local\Temp\ccbPi7hd.s 			page 13


 429:.\Generated_Source\PSoC4/PWM_GREEN.c ****         /* It is up to the user code to make sure there isn't already captured data in the FIFO */
 430:.\Generated_Source\PSoC4/PWM_GREEN.c ****           (void)CY_GET_REG8(PWM_GREEN_COUNTERCAP_LSB_PTR_8BIT);
 257              		.loc 1 430 0
 258 0004 034B     		ldr	r3, .L19
 259 0006 1B78     		ldrb	r3, [r3]
 431:.\Generated_Source\PSoC4/PWM_GREEN.c **** 
 432:.\Generated_Source\PSoC4/PWM_GREEN.c ****         /* Read the data from the FIFO */
 433:.\Generated_Source\PSoC4/PWM_GREEN.c ****         return (CY_GET_REG8(PWM_GREEN_CAPTURE_LSB_PTR));
 260              		.loc 1 433 0
 261 0008 034B     		ldr	r3, .L19+4
 262 000a 1B78     		ldrb	r3, [r3]
 263 000c DBB2     		uxtb	r3, r3
 434:.\Generated_Source\PSoC4/PWM_GREEN.c ****     }
 264              		.loc 1 434 0
 265 000e 181C     		mov	r0, r3
 266 0010 BD46     		mov	sp, r7
 267              		@ sp needed
 268 0012 80BD     		pop	{r7, pc}
 269              	.L20:
 270              		.align	2
 271              	.L19:
 272 0014 12000F40 		.word	1074724882
 273 0018 52000F40 		.word	1074724946
 274              		.cfi_endproc
 275              	.LFE7:
 276              		.size	PWM_GREEN_ReadCounter, .-PWM_GREEN_ReadCounter
 277              		.section	.text.PWM_GREEN_WritePeriod,"ax",%progbits
 278              		.align	2
 279              		.global	PWM_GREEN_WritePeriod
 280              		.code	16
 281              		.thumb_func
 282              		.type	PWM_GREEN_WritePeriod, %function
 283              	PWM_GREEN_WritePeriod:
 284              	.LFB8:
 435:.\Generated_Source\PSoC4/PWM_GREEN.c **** 
 436:.\Generated_Source\PSoC4/PWM_GREEN.c ****     #if (PWM_GREEN_UseStatus)
 437:.\Generated_Source\PSoC4/PWM_GREEN.c **** 
 438:.\Generated_Source\PSoC4/PWM_GREEN.c **** 
 439:.\Generated_Source\PSoC4/PWM_GREEN.c ****         /*******************************************************************************
 440:.\Generated_Source\PSoC4/PWM_GREEN.c ****         * Function Name: PWM_GREEN_ClearFIFO
 441:.\Generated_Source\PSoC4/PWM_GREEN.c ****         ********************************************************************************
 442:.\Generated_Source\PSoC4/PWM_GREEN.c ****         *
 443:.\Generated_Source\PSoC4/PWM_GREEN.c ****         * Summary:
 444:.\Generated_Source\PSoC4/PWM_GREEN.c ****         *  This function clears all capture data from the capture FIFO
 445:.\Generated_Source\PSoC4/PWM_GREEN.c ****         *
 446:.\Generated_Source\PSoC4/PWM_GREEN.c ****         * Parameters:
 447:.\Generated_Source\PSoC4/PWM_GREEN.c ****         *  None
 448:.\Generated_Source\PSoC4/PWM_GREEN.c ****         *
 449:.\Generated_Source\PSoC4/PWM_GREEN.c ****         * Return:
 450:.\Generated_Source\PSoC4/PWM_GREEN.c ****         *  None
 451:.\Generated_Source\PSoC4/PWM_GREEN.c ****         *
 452:.\Generated_Source\PSoC4/PWM_GREEN.c ****         *******************************************************************************/
 453:.\Generated_Source\PSoC4/PWM_GREEN.c ****         void PWM_GREEN_ClearFIFO(void) 
 454:.\Generated_Source\PSoC4/PWM_GREEN.c ****         {
 455:.\Generated_Source\PSoC4/PWM_GREEN.c ****             while(0u != (PWM_GREEN_ReadStatusRegister() & PWM_GREEN_STATUS_FIFONEMPTY))
 456:.\Generated_Source\PSoC4/PWM_GREEN.c ****             {
 457:.\Generated_Source\PSoC4/PWM_GREEN.c ****                 (void)PWM_GREEN_ReadCapture();
ARM GAS  C:\Users\wzh\AppData\Local\Temp\ccbPi7hd.s 			page 14


 458:.\Generated_Source\PSoC4/PWM_GREEN.c ****             }
 459:.\Generated_Source\PSoC4/PWM_GREEN.c ****         }
 460:.\Generated_Source\PSoC4/PWM_GREEN.c **** 
 461:.\Generated_Source\PSoC4/PWM_GREEN.c ****     #endif /* PWM_GREEN_UseStatus */
 462:.\Generated_Source\PSoC4/PWM_GREEN.c **** 
 463:.\Generated_Source\PSoC4/PWM_GREEN.c **** #endif /* !PWM_GREEN_UsingFixedFunction */
 464:.\Generated_Source\PSoC4/PWM_GREEN.c **** 
 465:.\Generated_Source\PSoC4/PWM_GREEN.c **** 
 466:.\Generated_Source\PSoC4/PWM_GREEN.c **** /*******************************************************************************
 467:.\Generated_Source\PSoC4/PWM_GREEN.c **** * Function Name: PWM_GREEN_WritePeriod
 468:.\Generated_Source\PSoC4/PWM_GREEN.c **** ********************************************************************************
 469:.\Generated_Source\PSoC4/PWM_GREEN.c **** *
 470:.\Generated_Source\PSoC4/PWM_GREEN.c **** * Summary:
 471:.\Generated_Source\PSoC4/PWM_GREEN.c **** *  This function is used to change the period of the counter.  The new period
 472:.\Generated_Source\PSoC4/PWM_GREEN.c **** *  will be loaded the next time terminal count is detected.
 473:.\Generated_Source\PSoC4/PWM_GREEN.c **** *
 474:.\Generated_Source\PSoC4/PWM_GREEN.c **** * Parameters:
 475:.\Generated_Source\PSoC4/PWM_GREEN.c **** *  period:  Period value. May be between 1 and (2^Resolution)-1.  A value of 0
 476:.\Generated_Source\PSoC4/PWM_GREEN.c **** *           will result in the counter remaining at zero.
 477:.\Generated_Source\PSoC4/PWM_GREEN.c **** *
 478:.\Generated_Source\PSoC4/PWM_GREEN.c **** * Return:
 479:.\Generated_Source\PSoC4/PWM_GREEN.c **** *  None
 480:.\Generated_Source\PSoC4/PWM_GREEN.c **** *
 481:.\Generated_Source\PSoC4/PWM_GREEN.c **** *******************************************************************************/
 482:.\Generated_Source\PSoC4/PWM_GREEN.c **** void PWM_GREEN_WritePeriod(uint8 period) 
 483:.\Generated_Source\PSoC4/PWM_GREEN.c **** {
 285              		.loc 1 483 0
 286              		.cfi_startproc
 287 0000 80B5     		push	{r7, lr}
 288              		.cfi_def_cfa_offset 8
 289              		.cfi_offset 7, -8
 290              		.cfi_offset 14, -4
 291 0002 82B0     		sub	sp, sp, #8
 292              		.cfi_def_cfa_offset 16
 293 0004 00AF     		add	r7, sp, #0
 294              		.cfi_def_cfa_register 7
 295 0006 021C     		mov	r2, r0
 296 0008 FB1D     		add	r3, r7, #7
 297 000a 1A70     		strb	r2, [r3]
 484:.\Generated_Source\PSoC4/PWM_GREEN.c ****     #if(PWM_GREEN_UsingFixedFunction)
 485:.\Generated_Source\PSoC4/PWM_GREEN.c ****         CY_SET_REG16(PWM_GREEN_PERIOD_LSB_PTR, (uint16)period);
 486:.\Generated_Source\PSoC4/PWM_GREEN.c ****     #else
 487:.\Generated_Source\PSoC4/PWM_GREEN.c ****         CY_SET_REG8(PWM_GREEN_PERIOD_LSB_PTR, period);
 298              		.loc 1 487 0
 299 000c 034B     		ldr	r3, .L22
 300 000e FA1D     		add	r2, r7, #7
 301 0010 1278     		ldrb	r2, [r2]
 302 0012 1A70     		strb	r2, [r3]
 488:.\Generated_Source\PSoC4/PWM_GREEN.c ****     #endif /* (PWM_GREEN_UsingFixedFunction) */
 489:.\Generated_Source\PSoC4/PWM_GREEN.c **** }
 303              		.loc 1 489 0
 304 0014 BD46     		mov	sp, r7
 305 0016 02B0     		add	sp, sp, #8
 306              		@ sp needed
 307 0018 80BD     		pop	{r7, pc}
 308              	.L23:
 309 001a C046     		.align	2
ARM GAS  C:\Users\wzh\AppData\Local\Temp\ccbPi7hd.s 			page 15


 310              	.L22:
 311 001c 42000F40 		.word	1074724930
 312              		.cfi_endproc
 313              	.LFE8:
 314              		.size	PWM_GREEN_WritePeriod, .-PWM_GREEN_WritePeriod
 315              		.section	.text.PWM_GREEN_WriteCompare,"ax",%progbits
 316              		.align	2
 317              		.global	PWM_GREEN_WriteCompare
 318              		.code	16
 319              		.thumb_func
 320              		.type	PWM_GREEN_WriteCompare, %function
 321              	PWM_GREEN_WriteCompare:
 322              	.LFB9:
 490:.\Generated_Source\PSoC4/PWM_GREEN.c **** 
 491:.\Generated_Source\PSoC4/PWM_GREEN.c **** #if (PWM_GREEN_UseOneCompareMode)
 492:.\Generated_Source\PSoC4/PWM_GREEN.c **** 
 493:.\Generated_Source\PSoC4/PWM_GREEN.c **** 
 494:.\Generated_Source\PSoC4/PWM_GREEN.c ****     /*******************************************************************************
 495:.\Generated_Source\PSoC4/PWM_GREEN.c ****     * Function Name: PWM_GREEN_WriteCompare
 496:.\Generated_Source\PSoC4/PWM_GREEN.c ****     ********************************************************************************
 497:.\Generated_Source\PSoC4/PWM_GREEN.c ****     *
 498:.\Generated_Source\PSoC4/PWM_GREEN.c ****     * Summary:
 499:.\Generated_Source\PSoC4/PWM_GREEN.c ****     *  This funtion is used to change the compare1 value when the PWM is in Dither
 500:.\Generated_Source\PSoC4/PWM_GREEN.c ****     *  mode. The compare output will reflect the new value on the next UDB clock.
 501:.\Generated_Source\PSoC4/PWM_GREEN.c ****     *  The compare output will be driven high when the present counter value is
 502:.\Generated_Source\PSoC4/PWM_GREEN.c ****     *  compared to the compare value based on the compare mode defined in
 503:.\Generated_Source\PSoC4/PWM_GREEN.c ****     *  Dither Mode.
 504:.\Generated_Source\PSoC4/PWM_GREEN.c ****     *
 505:.\Generated_Source\PSoC4/PWM_GREEN.c ****     * Parameters:
 506:.\Generated_Source\PSoC4/PWM_GREEN.c ****     *  compare:  New compare value.
 507:.\Generated_Source\PSoC4/PWM_GREEN.c ****     *
 508:.\Generated_Source\PSoC4/PWM_GREEN.c ****     * Return:
 509:.\Generated_Source\PSoC4/PWM_GREEN.c ****     *  None
 510:.\Generated_Source\PSoC4/PWM_GREEN.c ****     *
 511:.\Generated_Source\PSoC4/PWM_GREEN.c ****     * Side Effects:
 512:.\Generated_Source\PSoC4/PWM_GREEN.c ****     *  This function is only available if the PWM mode parameter is set to
 513:.\Generated_Source\PSoC4/PWM_GREEN.c ****     *  Dither Mode, Center Aligned Mode or One Output Mode
 514:.\Generated_Source\PSoC4/PWM_GREEN.c ****     *
 515:.\Generated_Source\PSoC4/PWM_GREEN.c ****     *******************************************************************************/
 516:.\Generated_Source\PSoC4/PWM_GREEN.c ****     void PWM_GREEN_WriteCompare(uint8 compare) \
 517:.\Generated_Source\PSoC4/PWM_GREEN.c ****                                        
 518:.\Generated_Source\PSoC4/PWM_GREEN.c ****     {
 323              		.loc 1 518 0
 324              		.cfi_startproc
 325 0000 80B5     		push	{r7, lr}
 326              		.cfi_def_cfa_offset 8
 327              		.cfi_offset 7, -8
 328              		.cfi_offset 14, -4
 329 0002 82B0     		sub	sp, sp, #8
 330              		.cfi_def_cfa_offset 16
 331 0004 00AF     		add	r7, sp, #0
 332              		.cfi_def_cfa_register 7
 333 0006 021C     		mov	r2, r0
 334 0008 FB1D     		add	r3, r7, #7
 335 000a 1A70     		strb	r2, [r3]
 519:.\Generated_Source\PSoC4/PWM_GREEN.c ****         #if(PWM_GREEN_UsingFixedFunction)
 520:.\Generated_Source\PSoC4/PWM_GREEN.c ****             CY_SET_REG16(PWM_GREEN_COMPARE1_LSB_PTR, (uint16)compare);
ARM GAS  C:\Users\wzh\AppData\Local\Temp\ccbPi7hd.s 			page 16


 521:.\Generated_Source\PSoC4/PWM_GREEN.c ****         #else
 522:.\Generated_Source\PSoC4/PWM_GREEN.c ****             CY_SET_REG8(PWM_GREEN_COMPARE1_LSB_PTR, compare);
 336              		.loc 1 522 0
 337 000c 034B     		ldr	r3, .L25
 338 000e FA1D     		add	r2, r7, #7
 339 0010 1278     		ldrb	r2, [r2]
 340 0012 1A70     		strb	r2, [r3]
 523:.\Generated_Source\PSoC4/PWM_GREEN.c ****         #endif /* (PWM_GREEN_UsingFixedFunction) */
 524:.\Generated_Source\PSoC4/PWM_GREEN.c **** 
 525:.\Generated_Source\PSoC4/PWM_GREEN.c ****         #if (PWM_GREEN_PWMMode == PWM_GREEN__B_PWM__DITHER)
 526:.\Generated_Source\PSoC4/PWM_GREEN.c ****             #if(PWM_GREEN_UsingFixedFunction)
 527:.\Generated_Source\PSoC4/PWM_GREEN.c ****                 CY_SET_REG16(PWM_GREEN_COMPARE2_LSB_PTR, (uint16)(compare + 1u));
 528:.\Generated_Source\PSoC4/PWM_GREEN.c ****             #else
 529:.\Generated_Source\PSoC4/PWM_GREEN.c ****                 CY_SET_REG8(PWM_GREEN_COMPARE2_LSB_PTR, (compare + 1u));
 530:.\Generated_Source\PSoC4/PWM_GREEN.c ****             #endif /* (PWM_GREEN_UsingFixedFunction) */
 531:.\Generated_Source\PSoC4/PWM_GREEN.c ****         #endif /* (PWM_GREEN_PWMMode == PWM_GREEN__B_PWM__DITHER) */
 532:.\Generated_Source\PSoC4/PWM_GREEN.c ****     }
 341              		.loc 1 532 0
 342 0014 BD46     		mov	sp, r7
 343 0016 02B0     		add	sp, sp, #8
 344              		@ sp needed
 345 0018 80BD     		pop	{r7, pc}
 346              	.L26:
 347 001a C046     		.align	2
 348              	.L25:
 349 001c 22000F40 		.word	1074724898
 350              		.cfi_endproc
 351              	.LFE9:
 352              		.size	PWM_GREEN_WriteCompare, .-PWM_GREEN_WriteCompare
 353              		.section	.text.PWM_GREEN_ReadControlRegister,"ax",%progbits
 354              		.align	2
 355              		.global	PWM_GREEN_ReadControlRegister
 356              		.code	16
 357              		.thumb_func
 358              		.type	PWM_GREEN_ReadControlRegister, %function
 359              	PWM_GREEN_ReadControlRegister:
 360              	.LFB10:
 533:.\Generated_Source\PSoC4/PWM_GREEN.c **** 
 534:.\Generated_Source\PSoC4/PWM_GREEN.c **** 
 535:.\Generated_Source\PSoC4/PWM_GREEN.c **** #else
 536:.\Generated_Source\PSoC4/PWM_GREEN.c **** 
 537:.\Generated_Source\PSoC4/PWM_GREEN.c **** 
 538:.\Generated_Source\PSoC4/PWM_GREEN.c ****     /*******************************************************************************
 539:.\Generated_Source\PSoC4/PWM_GREEN.c ****     * Function Name: PWM_GREEN_WriteCompare1
 540:.\Generated_Source\PSoC4/PWM_GREEN.c ****     ********************************************************************************
 541:.\Generated_Source\PSoC4/PWM_GREEN.c ****     *
 542:.\Generated_Source\PSoC4/PWM_GREEN.c ****     * Summary:
 543:.\Generated_Source\PSoC4/PWM_GREEN.c ****     *  This funtion is used to change the compare1 value.  The compare output will
 544:.\Generated_Source\PSoC4/PWM_GREEN.c ****     *  reflect the new value on the next UDB clock.  The compare output will be
 545:.\Generated_Source\PSoC4/PWM_GREEN.c ****     *  driven high when the present counter value is less than or less than or
 546:.\Generated_Source\PSoC4/PWM_GREEN.c ****     *  equal to the compare register, depending on the mode.
 547:.\Generated_Source\PSoC4/PWM_GREEN.c ****     *
 548:.\Generated_Source\PSoC4/PWM_GREEN.c ****     * Parameters:
 549:.\Generated_Source\PSoC4/PWM_GREEN.c ****     *  compare:  New compare value.
 550:.\Generated_Source\PSoC4/PWM_GREEN.c ****     *
 551:.\Generated_Source\PSoC4/PWM_GREEN.c ****     * Return:
 552:.\Generated_Source\PSoC4/PWM_GREEN.c ****     *  None
ARM GAS  C:\Users\wzh\AppData\Local\Temp\ccbPi7hd.s 			page 17


 553:.\Generated_Source\PSoC4/PWM_GREEN.c ****     *
 554:.\Generated_Source\PSoC4/PWM_GREEN.c ****     *******************************************************************************/
 555:.\Generated_Source\PSoC4/PWM_GREEN.c ****     void PWM_GREEN_WriteCompare1(uint8 compare) \
 556:.\Generated_Source\PSoC4/PWM_GREEN.c ****                                         
 557:.\Generated_Source\PSoC4/PWM_GREEN.c ****     {
 558:.\Generated_Source\PSoC4/PWM_GREEN.c ****         #if(PWM_GREEN_UsingFixedFunction)
 559:.\Generated_Source\PSoC4/PWM_GREEN.c ****             CY_SET_REG16(PWM_GREEN_COMPARE1_LSB_PTR, (uint16)compare);
 560:.\Generated_Source\PSoC4/PWM_GREEN.c ****         #else
 561:.\Generated_Source\PSoC4/PWM_GREEN.c ****             CY_SET_REG8(PWM_GREEN_COMPARE1_LSB_PTR, compare);
 562:.\Generated_Source\PSoC4/PWM_GREEN.c ****         #endif /* (PWM_GREEN_UsingFixedFunction) */
 563:.\Generated_Source\PSoC4/PWM_GREEN.c ****     }
 564:.\Generated_Source\PSoC4/PWM_GREEN.c **** 
 565:.\Generated_Source\PSoC4/PWM_GREEN.c **** 
 566:.\Generated_Source\PSoC4/PWM_GREEN.c ****     /*******************************************************************************
 567:.\Generated_Source\PSoC4/PWM_GREEN.c ****     * Function Name: PWM_GREEN_WriteCompare2
 568:.\Generated_Source\PSoC4/PWM_GREEN.c ****     ********************************************************************************
 569:.\Generated_Source\PSoC4/PWM_GREEN.c ****     *
 570:.\Generated_Source\PSoC4/PWM_GREEN.c ****     * Summary:
 571:.\Generated_Source\PSoC4/PWM_GREEN.c ****     *  This funtion is used to change the compare value, for compare1 output.
 572:.\Generated_Source\PSoC4/PWM_GREEN.c ****     *  The compare output will reflect the new value on the next UDB clock.
 573:.\Generated_Source\PSoC4/PWM_GREEN.c ****     *  The compare output will be driven high when the present counter value is
 574:.\Generated_Source\PSoC4/PWM_GREEN.c ****     *  less than or less than or equal to the compare register, depending on the
 575:.\Generated_Source\PSoC4/PWM_GREEN.c ****     *  mode.
 576:.\Generated_Source\PSoC4/PWM_GREEN.c ****     *
 577:.\Generated_Source\PSoC4/PWM_GREEN.c ****     * Parameters:
 578:.\Generated_Source\PSoC4/PWM_GREEN.c ****     *  compare:  New compare value.
 579:.\Generated_Source\PSoC4/PWM_GREEN.c ****     *
 580:.\Generated_Source\PSoC4/PWM_GREEN.c ****     * Return:
 581:.\Generated_Source\PSoC4/PWM_GREEN.c ****     *  None
 582:.\Generated_Source\PSoC4/PWM_GREEN.c ****     *
 583:.\Generated_Source\PSoC4/PWM_GREEN.c ****     *******************************************************************************/
 584:.\Generated_Source\PSoC4/PWM_GREEN.c ****     void PWM_GREEN_WriteCompare2(uint8 compare) \
 585:.\Generated_Source\PSoC4/PWM_GREEN.c ****                                         
 586:.\Generated_Source\PSoC4/PWM_GREEN.c ****     {
 587:.\Generated_Source\PSoC4/PWM_GREEN.c ****         #if(PWM_GREEN_UsingFixedFunction)
 588:.\Generated_Source\PSoC4/PWM_GREEN.c ****             CY_SET_REG16(PWM_GREEN_COMPARE2_LSB_PTR, compare);
 589:.\Generated_Source\PSoC4/PWM_GREEN.c ****         #else
 590:.\Generated_Source\PSoC4/PWM_GREEN.c ****             CY_SET_REG8(PWM_GREEN_COMPARE2_LSB_PTR, compare);
 591:.\Generated_Source\PSoC4/PWM_GREEN.c ****         #endif /* (PWM_GREEN_UsingFixedFunction) */
 592:.\Generated_Source\PSoC4/PWM_GREEN.c ****     }
 593:.\Generated_Source\PSoC4/PWM_GREEN.c **** #endif /* UseOneCompareMode */
 594:.\Generated_Source\PSoC4/PWM_GREEN.c **** 
 595:.\Generated_Source\PSoC4/PWM_GREEN.c **** #if (PWM_GREEN_DeadBandUsed)
 596:.\Generated_Source\PSoC4/PWM_GREEN.c **** 
 597:.\Generated_Source\PSoC4/PWM_GREEN.c **** 
 598:.\Generated_Source\PSoC4/PWM_GREEN.c ****     /*******************************************************************************
 599:.\Generated_Source\PSoC4/PWM_GREEN.c ****     * Function Name: PWM_GREEN_WriteDeadTime
 600:.\Generated_Source\PSoC4/PWM_GREEN.c ****     ********************************************************************************
 601:.\Generated_Source\PSoC4/PWM_GREEN.c ****     *
 602:.\Generated_Source\PSoC4/PWM_GREEN.c ****     * Summary:
 603:.\Generated_Source\PSoC4/PWM_GREEN.c ****     *  This function writes the dead-band counts to the corresponding register
 604:.\Generated_Source\PSoC4/PWM_GREEN.c ****     *
 605:.\Generated_Source\PSoC4/PWM_GREEN.c ****     * Parameters:
 606:.\Generated_Source\PSoC4/PWM_GREEN.c ****     *  deadtime:  Number of counts for dead time
 607:.\Generated_Source\PSoC4/PWM_GREEN.c ****     *
 608:.\Generated_Source\PSoC4/PWM_GREEN.c ****     * Return:
 609:.\Generated_Source\PSoC4/PWM_GREEN.c ****     *  None
ARM GAS  C:\Users\wzh\AppData\Local\Temp\ccbPi7hd.s 			page 18


 610:.\Generated_Source\PSoC4/PWM_GREEN.c ****     *
 611:.\Generated_Source\PSoC4/PWM_GREEN.c ****     *******************************************************************************/
 612:.\Generated_Source\PSoC4/PWM_GREEN.c ****     void PWM_GREEN_WriteDeadTime(uint8 deadtime) 
 613:.\Generated_Source\PSoC4/PWM_GREEN.c ****     {
 614:.\Generated_Source\PSoC4/PWM_GREEN.c ****         /* If using the Dead Band 1-255 mode then just write the register */
 615:.\Generated_Source\PSoC4/PWM_GREEN.c ****         #if(!PWM_GREEN_DeadBand2_4)
 616:.\Generated_Source\PSoC4/PWM_GREEN.c ****             CY_SET_REG8(PWM_GREEN_DEADBAND_COUNT_PTR, deadtime);
 617:.\Generated_Source\PSoC4/PWM_GREEN.c ****         #else
 618:.\Generated_Source\PSoC4/PWM_GREEN.c ****             /* Otherwise the data has to be masked and offset */
 619:.\Generated_Source\PSoC4/PWM_GREEN.c ****             /* Clear existing data */
 620:.\Generated_Source\PSoC4/PWM_GREEN.c ****             PWM_GREEN_DEADBAND_COUNT &= ((uint8)(~PWM_GREEN_DEADBAND_COUNT_MASK));
 621:.\Generated_Source\PSoC4/PWM_GREEN.c **** 
 622:.\Generated_Source\PSoC4/PWM_GREEN.c ****             /* Set new dead time */
 623:.\Generated_Source\PSoC4/PWM_GREEN.c ****             #if(PWM_GREEN_DEADBAND_COUNT_SHIFT)
 624:.\Generated_Source\PSoC4/PWM_GREEN.c ****                 PWM_GREEN_DEADBAND_COUNT |= ((uint8)((uint8)deadtime << PWM_GREEN_DEADBAND_COUNT_SH
 625:.\Generated_Source\PSoC4/PWM_GREEN.c ****                                                     PWM_GREEN_DEADBAND_COUNT_MASK;
 626:.\Generated_Source\PSoC4/PWM_GREEN.c ****             #else
 627:.\Generated_Source\PSoC4/PWM_GREEN.c ****                 PWM_GREEN_DEADBAND_COUNT |= deadtime & PWM_GREEN_DEADBAND_COUNT_MASK;
 628:.\Generated_Source\PSoC4/PWM_GREEN.c ****             #endif /* (PWM_GREEN_DEADBAND_COUNT_SHIFT) */
 629:.\Generated_Source\PSoC4/PWM_GREEN.c **** 
 630:.\Generated_Source\PSoC4/PWM_GREEN.c ****         #endif /* (!PWM_GREEN_DeadBand2_4) */
 631:.\Generated_Source\PSoC4/PWM_GREEN.c ****     }
 632:.\Generated_Source\PSoC4/PWM_GREEN.c **** 
 633:.\Generated_Source\PSoC4/PWM_GREEN.c **** 
 634:.\Generated_Source\PSoC4/PWM_GREEN.c ****     /*******************************************************************************
 635:.\Generated_Source\PSoC4/PWM_GREEN.c ****     * Function Name: PWM_GREEN_ReadDeadTime
 636:.\Generated_Source\PSoC4/PWM_GREEN.c ****     ********************************************************************************
 637:.\Generated_Source\PSoC4/PWM_GREEN.c ****     *
 638:.\Generated_Source\PSoC4/PWM_GREEN.c ****     * Summary:
 639:.\Generated_Source\PSoC4/PWM_GREEN.c ****     *  This function reads the dead-band counts from the corresponding register
 640:.\Generated_Source\PSoC4/PWM_GREEN.c ****     *
 641:.\Generated_Source\PSoC4/PWM_GREEN.c ****     * Parameters:
 642:.\Generated_Source\PSoC4/PWM_GREEN.c ****     *  None
 643:.\Generated_Source\PSoC4/PWM_GREEN.c ****     *
 644:.\Generated_Source\PSoC4/PWM_GREEN.c ****     * Return:
 645:.\Generated_Source\PSoC4/PWM_GREEN.c ****     *  Dead Band Counts
 646:.\Generated_Source\PSoC4/PWM_GREEN.c ****     *
 647:.\Generated_Source\PSoC4/PWM_GREEN.c ****     *******************************************************************************/
 648:.\Generated_Source\PSoC4/PWM_GREEN.c ****     uint8 PWM_GREEN_ReadDeadTime(void) 
 649:.\Generated_Source\PSoC4/PWM_GREEN.c ****     {
 650:.\Generated_Source\PSoC4/PWM_GREEN.c ****         /* If using the Dead Band 1-255 mode then just read the register */
 651:.\Generated_Source\PSoC4/PWM_GREEN.c ****         #if(!PWM_GREEN_DeadBand2_4)
 652:.\Generated_Source\PSoC4/PWM_GREEN.c ****             return (CY_GET_REG8(PWM_GREEN_DEADBAND_COUNT_PTR));
 653:.\Generated_Source\PSoC4/PWM_GREEN.c ****         #else
 654:.\Generated_Source\PSoC4/PWM_GREEN.c **** 
 655:.\Generated_Source\PSoC4/PWM_GREEN.c ****             /* Otherwise the data has to be masked and offset */
 656:.\Generated_Source\PSoC4/PWM_GREEN.c ****             #if(PWM_GREEN_DEADBAND_COUNT_SHIFT)
 657:.\Generated_Source\PSoC4/PWM_GREEN.c ****                 return ((uint8)(((uint8)(PWM_GREEN_DEADBAND_COUNT & PWM_GREEN_DEADBAND_COUNT_MASK))
 658:.\Generated_Source\PSoC4/PWM_GREEN.c ****                                                                            PWM_GREEN_DEADBAND_COUNT
 659:.\Generated_Source\PSoC4/PWM_GREEN.c ****             #else
 660:.\Generated_Source\PSoC4/PWM_GREEN.c ****                 return (PWM_GREEN_DEADBAND_COUNT & PWM_GREEN_DEADBAND_COUNT_MASK);
 661:.\Generated_Source\PSoC4/PWM_GREEN.c ****             #endif /* (PWM_GREEN_DEADBAND_COUNT_SHIFT) */
 662:.\Generated_Source\PSoC4/PWM_GREEN.c ****         #endif /* (!PWM_GREEN_DeadBand2_4) */
 663:.\Generated_Source\PSoC4/PWM_GREEN.c ****     }
 664:.\Generated_Source\PSoC4/PWM_GREEN.c **** #endif /* DeadBandUsed */
 665:.\Generated_Source\PSoC4/PWM_GREEN.c **** 
 666:.\Generated_Source\PSoC4/PWM_GREEN.c **** #if (PWM_GREEN_UseStatus || PWM_GREEN_UsingFixedFunction)
ARM GAS  C:\Users\wzh\AppData\Local\Temp\ccbPi7hd.s 			page 19


 667:.\Generated_Source\PSoC4/PWM_GREEN.c **** 
 668:.\Generated_Source\PSoC4/PWM_GREEN.c **** 
 669:.\Generated_Source\PSoC4/PWM_GREEN.c ****     /*******************************************************************************
 670:.\Generated_Source\PSoC4/PWM_GREEN.c ****     * Function Name: PWM_GREEN_SetInterruptMode
 671:.\Generated_Source\PSoC4/PWM_GREEN.c ****     ********************************************************************************
 672:.\Generated_Source\PSoC4/PWM_GREEN.c ****     *
 673:.\Generated_Source\PSoC4/PWM_GREEN.c ****     * Summary:
 674:.\Generated_Source\PSoC4/PWM_GREEN.c ****     *  This function configures the interrupts mask control of theinterrupt
 675:.\Generated_Source\PSoC4/PWM_GREEN.c ****     *  source status register.
 676:.\Generated_Source\PSoC4/PWM_GREEN.c ****     *
 677:.\Generated_Source\PSoC4/PWM_GREEN.c ****     * Parameters:
 678:.\Generated_Source\PSoC4/PWM_GREEN.c ****     *  uint8 interruptMode: Bit field containing the interrupt sources enabled
 679:.\Generated_Source\PSoC4/PWM_GREEN.c ****     *
 680:.\Generated_Source\PSoC4/PWM_GREEN.c ****     * Return:
 681:.\Generated_Source\PSoC4/PWM_GREEN.c ****     *  None
 682:.\Generated_Source\PSoC4/PWM_GREEN.c ****     *
 683:.\Generated_Source\PSoC4/PWM_GREEN.c ****     *******************************************************************************/
 684:.\Generated_Source\PSoC4/PWM_GREEN.c ****     void PWM_GREEN_SetInterruptMode(uint8 interruptMode) 
 685:.\Generated_Source\PSoC4/PWM_GREEN.c ****     {
 686:.\Generated_Source\PSoC4/PWM_GREEN.c ****         CY_SET_REG8(PWM_GREEN_STATUS_MASK_PTR, interruptMode);
 687:.\Generated_Source\PSoC4/PWM_GREEN.c ****     }
 688:.\Generated_Source\PSoC4/PWM_GREEN.c **** 
 689:.\Generated_Source\PSoC4/PWM_GREEN.c **** 
 690:.\Generated_Source\PSoC4/PWM_GREEN.c ****     /*******************************************************************************
 691:.\Generated_Source\PSoC4/PWM_GREEN.c ****     * Function Name: PWM_GREEN_ReadStatusRegister
 692:.\Generated_Source\PSoC4/PWM_GREEN.c ****     ********************************************************************************
 693:.\Generated_Source\PSoC4/PWM_GREEN.c ****     *
 694:.\Generated_Source\PSoC4/PWM_GREEN.c ****     * Summary:
 695:.\Generated_Source\PSoC4/PWM_GREEN.c ****     *  This function returns the current state of the status register.
 696:.\Generated_Source\PSoC4/PWM_GREEN.c ****     *
 697:.\Generated_Source\PSoC4/PWM_GREEN.c ****     * Parameters:
 698:.\Generated_Source\PSoC4/PWM_GREEN.c ****     *  None
 699:.\Generated_Source\PSoC4/PWM_GREEN.c ****     *
 700:.\Generated_Source\PSoC4/PWM_GREEN.c ****     * Return:
 701:.\Generated_Source\PSoC4/PWM_GREEN.c ****     *  uint8 : Current status register value. The status register bits are:
 702:.\Generated_Source\PSoC4/PWM_GREEN.c ****     *  [7:6] : Unused(0)
 703:.\Generated_Source\PSoC4/PWM_GREEN.c ****     *  [5]   : Kill event output
 704:.\Generated_Source\PSoC4/PWM_GREEN.c ****     *  [4]   : FIFO not empty
 705:.\Generated_Source\PSoC4/PWM_GREEN.c ****     *  [3]   : FIFO full
 706:.\Generated_Source\PSoC4/PWM_GREEN.c ****     *  [2]   : Terminal count
 707:.\Generated_Source\PSoC4/PWM_GREEN.c ****     *  [1]   : Compare output 2
 708:.\Generated_Source\PSoC4/PWM_GREEN.c ****     *  [0]   : Compare output 1
 709:.\Generated_Source\PSoC4/PWM_GREEN.c ****     *
 710:.\Generated_Source\PSoC4/PWM_GREEN.c ****     *******************************************************************************/
 711:.\Generated_Source\PSoC4/PWM_GREEN.c ****     uint8 PWM_GREEN_ReadStatusRegister(void) 
 712:.\Generated_Source\PSoC4/PWM_GREEN.c ****     {
 713:.\Generated_Source\PSoC4/PWM_GREEN.c ****         return (CY_GET_REG8(PWM_GREEN_STATUS_PTR));
 714:.\Generated_Source\PSoC4/PWM_GREEN.c ****     }
 715:.\Generated_Source\PSoC4/PWM_GREEN.c **** 
 716:.\Generated_Source\PSoC4/PWM_GREEN.c **** #endif /* (PWM_GREEN_UseStatus || PWM_GREEN_UsingFixedFunction) */
 717:.\Generated_Source\PSoC4/PWM_GREEN.c **** 
 718:.\Generated_Source\PSoC4/PWM_GREEN.c **** 
 719:.\Generated_Source\PSoC4/PWM_GREEN.c **** #if (PWM_GREEN_UseControl)
 720:.\Generated_Source\PSoC4/PWM_GREEN.c **** 
 721:.\Generated_Source\PSoC4/PWM_GREEN.c **** 
 722:.\Generated_Source\PSoC4/PWM_GREEN.c ****     /*******************************************************************************
 723:.\Generated_Source\PSoC4/PWM_GREEN.c ****     * Function Name: PWM_GREEN_ReadControlRegister
ARM GAS  C:\Users\wzh\AppData\Local\Temp\ccbPi7hd.s 			page 20


 724:.\Generated_Source\PSoC4/PWM_GREEN.c ****     ********************************************************************************
 725:.\Generated_Source\PSoC4/PWM_GREEN.c ****     *
 726:.\Generated_Source\PSoC4/PWM_GREEN.c ****     * Summary:
 727:.\Generated_Source\PSoC4/PWM_GREEN.c ****     *  Returns the current state of the control register. This API is available
 728:.\Generated_Source\PSoC4/PWM_GREEN.c ****     *  only if the control register is not removed.
 729:.\Generated_Source\PSoC4/PWM_GREEN.c ****     *
 730:.\Generated_Source\PSoC4/PWM_GREEN.c ****     * Parameters:
 731:.\Generated_Source\PSoC4/PWM_GREEN.c ****     *  None
 732:.\Generated_Source\PSoC4/PWM_GREEN.c ****     *
 733:.\Generated_Source\PSoC4/PWM_GREEN.c ****     * Return:
 734:.\Generated_Source\PSoC4/PWM_GREEN.c ****     *  uint8 : Current control register value
 735:.\Generated_Source\PSoC4/PWM_GREEN.c ****     *
 736:.\Generated_Source\PSoC4/PWM_GREEN.c ****     *******************************************************************************/
 737:.\Generated_Source\PSoC4/PWM_GREEN.c ****     uint8 PWM_GREEN_ReadControlRegister(void) 
 738:.\Generated_Source\PSoC4/PWM_GREEN.c ****     {
 361              		.loc 1 738 0
 362              		.cfi_startproc
 363 0000 80B5     		push	{r7, lr}
 364              		.cfi_def_cfa_offset 8
 365              		.cfi_offset 7, -8
 366              		.cfi_offset 14, -4
 367 0002 82B0     		sub	sp, sp, #8
 368              		.cfi_def_cfa_offset 16
 369 0004 00AF     		add	r7, sp, #0
 370              		.cfi_def_cfa_register 7
 739:.\Generated_Source\PSoC4/PWM_GREEN.c ****         uint8 result;
 740:.\Generated_Source\PSoC4/PWM_GREEN.c **** 
 741:.\Generated_Source\PSoC4/PWM_GREEN.c ****         result = CY_GET_REG8(PWM_GREEN_CONTROL_PTR);
 371              		.loc 1 741 0
 372 0006 054A     		ldr	r2, .L29
 373 0008 FB1D     		add	r3, r7, #7
 374 000a 1278     		ldrb	r2, [r2]
 375 000c 1A70     		strb	r2, [r3]
 742:.\Generated_Source\PSoC4/PWM_GREEN.c ****         return (result);
 376              		.loc 1 742 0
 377 000e FB1D     		add	r3, r7, #7
 378 0010 1B78     		ldrb	r3, [r3]
 743:.\Generated_Source\PSoC4/PWM_GREEN.c ****     }
 379              		.loc 1 743 0
 380 0012 181C     		mov	r0, r3
 381 0014 BD46     		mov	sp, r7
 382 0016 02B0     		add	sp, sp, #8
 383              		@ sp needed
 384 0018 80BD     		pop	{r7, pc}
 385              	.L30:
 386 001a C046     		.align	2
 387              	.L29:
 388 001c 72000F40 		.word	1074724978
 389              		.cfi_endproc
 390              	.LFE10:
 391              		.size	PWM_GREEN_ReadControlRegister, .-PWM_GREEN_ReadControlRegister
 392              		.section	.text.PWM_GREEN_WriteControlRegister,"ax",%progbits
 393              		.align	2
 394              		.global	PWM_GREEN_WriteControlRegister
 395              		.code	16
 396              		.thumb_func
 397              		.type	PWM_GREEN_WriteControlRegister, %function
ARM GAS  C:\Users\wzh\AppData\Local\Temp\ccbPi7hd.s 			page 21


 398              	PWM_GREEN_WriteControlRegister:
 399              	.LFB11:
 744:.\Generated_Source\PSoC4/PWM_GREEN.c **** 
 745:.\Generated_Source\PSoC4/PWM_GREEN.c **** 
 746:.\Generated_Source\PSoC4/PWM_GREEN.c ****     /*******************************************************************************
 747:.\Generated_Source\PSoC4/PWM_GREEN.c ****     * Function Name: PWM_GREEN_WriteControlRegister
 748:.\Generated_Source\PSoC4/PWM_GREEN.c ****     ********************************************************************************
 749:.\Generated_Source\PSoC4/PWM_GREEN.c ****     *
 750:.\Generated_Source\PSoC4/PWM_GREEN.c ****     * Summary:
 751:.\Generated_Source\PSoC4/PWM_GREEN.c ****     *  Sets the bit field of the control register. This API is available only if
 752:.\Generated_Source\PSoC4/PWM_GREEN.c ****     *  the control register is not removed.
 753:.\Generated_Source\PSoC4/PWM_GREEN.c ****     *
 754:.\Generated_Source\PSoC4/PWM_GREEN.c ****     * Parameters:
 755:.\Generated_Source\PSoC4/PWM_GREEN.c ****     *  uint8 control: Control register bit field, The status register bits are:
 756:.\Generated_Source\PSoC4/PWM_GREEN.c ****     *  [7]   : PWM Enable
 757:.\Generated_Source\PSoC4/PWM_GREEN.c ****     *  [6]   : Reset
 758:.\Generated_Source\PSoC4/PWM_GREEN.c ****     *  [5:3] : Compare Mode2
 759:.\Generated_Source\PSoC4/PWM_GREEN.c ****     *  [2:0] : Compare Mode2
 760:.\Generated_Source\PSoC4/PWM_GREEN.c ****     *
 761:.\Generated_Source\PSoC4/PWM_GREEN.c ****     * Return:
 762:.\Generated_Source\PSoC4/PWM_GREEN.c ****     *  None
 763:.\Generated_Source\PSoC4/PWM_GREEN.c ****     *
 764:.\Generated_Source\PSoC4/PWM_GREEN.c ****     *******************************************************************************/
 765:.\Generated_Source\PSoC4/PWM_GREEN.c ****     void PWM_GREEN_WriteControlRegister(uint8 control) 
 766:.\Generated_Source\PSoC4/PWM_GREEN.c ****     {
 400              		.loc 1 766 0
 401              		.cfi_startproc
 402 0000 80B5     		push	{r7, lr}
 403              		.cfi_def_cfa_offset 8
 404              		.cfi_offset 7, -8
 405              		.cfi_offset 14, -4
 406 0002 82B0     		sub	sp, sp, #8
 407              		.cfi_def_cfa_offset 16
 408 0004 00AF     		add	r7, sp, #0
 409              		.cfi_def_cfa_register 7
 410 0006 021C     		mov	r2, r0
 411 0008 FB1D     		add	r3, r7, #7
 412 000a 1A70     		strb	r2, [r3]
 767:.\Generated_Source\PSoC4/PWM_GREEN.c ****         CY_SET_REG8(PWM_GREEN_CONTROL_PTR, control);
 413              		.loc 1 767 0
 414 000c 034B     		ldr	r3, .L32
 415 000e FA1D     		add	r2, r7, #7
 416 0010 1278     		ldrb	r2, [r2]
 417 0012 1A70     		strb	r2, [r3]
 768:.\Generated_Source\PSoC4/PWM_GREEN.c ****     }
 418              		.loc 1 768 0
 419 0014 BD46     		mov	sp, r7
 420 0016 02B0     		add	sp, sp, #8
 421              		@ sp needed
 422 0018 80BD     		pop	{r7, pc}
 423              	.L33:
 424 001a C046     		.align	2
 425              	.L32:
 426 001c 72000F40 		.word	1074724978
 427              		.cfi_endproc
 428              	.LFE11:
 429              		.size	PWM_GREEN_WriteControlRegister, .-PWM_GREEN_WriteControlRegister
ARM GAS  C:\Users\wzh\AppData\Local\Temp\ccbPi7hd.s 			page 22


 430              		.section	.text.PWM_GREEN_ReadCapture,"ax",%progbits
 431              		.align	2
 432              		.global	PWM_GREEN_ReadCapture
 433              		.code	16
 434              		.thumb_func
 435              		.type	PWM_GREEN_ReadCapture, %function
 436              	PWM_GREEN_ReadCapture:
 437              	.LFB12:
 769:.\Generated_Source\PSoC4/PWM_GREEN.c **** 
 770:.\Generated_Source\PSoC4/PWM_GREEN.c **** #endif /* (PWM_GREEN_UseControl) */
 771:.\Generated_Source\PSoC4/PWM_GREEN.c **** 
 772:.\Generated_Source\PSoC4/PWM_GREEN.c **** 
 773:.\Generated_Source\PSoC4/PWM_GREEN.c **** #if (!PWM_GREEN_UsingFixedFunction)
 774:.\Generated_Source\PSoC4/PWM_GREEN.c **** 
 775:.\Generated_Source\PSoC4/PWM_GREEN.c **** 
 776:.\Generated_Source\PSoC4/PWM_GREEN.c ****     /*******************************************************************************
 777:.\Generated_Source\PSoC4/PWM_GREEN.c ****     * Function Name: PWM_GREEN_ReadCapture
 778:.\Generated_Source\PSoC4/PWM_GREEN.c ****     ********************************************************************************
 779:.\Generated_Source\PSoC4/PWM_GREEN.c ****     *
 780:.\Generated_Source\PSoC4/PWM_GREEN.c ****     * Summary:
 781:.\Generated_Source\PSoC4/PWM_GREEN.c ****     *  Reads the capture value from the capture FIFO.
 782:.\Generated_Source\PSoC4/PWM_GREEN.c ****     *
 783:.\Generated_Source\PSoC4/PWM_GREEN.c ****     * Parameters:
 784:.\Generated_Source\PSoC4/PWM_GREEN.c ****     *  None
 785:.\Generated_Source\PSoC4/PWM_GREEN.c ****     *
 786:.\Generated_Source\PSoC4/PWM_GREEN.c ****     * Return:
 787:.\Generated_Source\PSoC4/PWM_GREEN.c ****     *  uint8/uint16: The current capture value
 788:.\Generated_Source\PSoC4/PWM_GREEN.c ****     *
 789:.\Generated_Source\PSoC4/PWM_GREEN.c ****     *******************************************************************************/
 790:.\Generated_Source\PSoC4/PWM_GREEN.c ****     uint8 PWM_GREEN_ReadCapture(void) 
 791:.\Generated_Source\PSoC4/PWM_GREEN.c ****     {
 438              		.loc 1 791 0
 439              		.cfi_startproc
 440 0000 80B5     		push	{r7, lr}
 441              		.cfi_def_cfa_offset 8
 442              		.cfi_offset 7, -8
 443              		.cfi_offset 14, -4
 444 0002 00AF     		add	r7, sp, #0
 445              		.cfi_def_cfa_register 7
 792:.\Generated_Source\PSoC4/PWM_GREEN.c ****         return (CY_GET_REG8(PWM_GREEN_CAPTURE_LSB_PTR));
 446              		.loc 1 792 0
 447 0004 024B     		ldr	r3, .L36
 448 0006 1B78     		ldrb	r3, [r3]
 449 0008 DBB2     		uxtb	r3, r3
 793:.\Generated_Source\PSoC4/PWM_GREEN.c ****     }
 450              		.loc 1 793 0
 451 000a 181C     		mov	r0, r3
 452 000c BD46     		mov	sp, r7
 453              		@ sp needed
 454 000e 80BD     		pop	{r7, pc}
 455              	.L37:
 456              		.align	2
 457              	.L36:
 458 0010 52000F40 		.word	1074724946
 459              		.cfi_endproc
 460              	.LFE12:
 461              		.size	PWM_GREEN_ReadCapture, .-PWM_GREEN_ReadCapture
ARM GAS  C:\Users\wzh\AppData\Local\Temp\ccbPi7hd.s 			page 23


 462              		.section	.text.PWM_GREEN_ReadCompare,"ax",%progbits
 463              		.align	2
 464              		.global	PWM_GREEN_ReadCompare
 465              		.code	16
 466              		.thumb_func
 467              		.type	PWM_GREEN_ReadCompare, %function
 468              	PWM_GREEN_ReadCompare:
 469              	.LFB13:
 794:.\Generated_Source\PSoC4/PWM_GREEN.c **** 
 795:.\Generated_Source\PSoC4/PWM_GREEN.c **** #endif /* (!PWM_GREEN_UsingFixedFunction) */
 796:.\Generated_Source\PSoC4/PWM_GREEN.c **** 
 797:.\Generated_Source\PSoC4/PWM_GREEN.c **** 
 798:.\Generated_Source\PSoC4/PWM_GREEN.c **** #if (PWM_GREEN_UseOneCompareMode)
 799:.\Generated_Source\PSoC4/PWM_GREEN.c **** 
 800:.\Generated_Source\PSoC4/PWM_GREEN.c **** 
 801:.\Generated_Source\PSoC4/PWM_GREEN.c ****     /*******************************************************************************
 802:.\Generated_Source\PSoC4/PWM_GREEN.c ****     * Function Name: PWM_GREEN_ReadCompare
 803:.\Generated_Source\PSoC4/PWM_GREEN.c ****     ********************************************************************************
 804:.\Generated_Source\PSoC4/PWM_GREEN.c ****     *
 805:.\Generated_Source\PSoC4/PWM_GREEN.c ****     * Summary:
 806:.\Generated_Source\PSoC4/PWM_GREEN.c ****     *  Reads the compare value for the compare output when the PWM Mode parameter is
 807:.\Generated_Source\PSoC4/PWM_GREEN.c ****     *  set to Dither mode, Center Aligned mode, or One Output mode.
 808:.\Generated_Source\PSoC4/PWM_GREEN.c ****     *
 809:.\Generated_Source\PSoC4/PWM_GREEN.c ****     * Parameters:
 810:.\Generated_Source\PSoC4/PWM_GREEN.c ****     *  None
 811:.\Generated_Source\PSoC4/PWM_GREEN.c ****     *
 812:.\Generated_Source\PSoC4/PWM_GREEN.c ****     * Return:
 813:.\Generated_Source\PSoC4/PWM_GREEN.c ****     *  uint8/uint16: Current compare value
 814:.\Generated_Source\PSoC4/PWM_GREEN.c ****     *
 815:.\Generated_Source\PSoC4/PWM_GREEN.c ****     *******************************************************************************/
 816:.\Generated_Source\PSoC4/PWM_GREEN.c ****     uint8 PWM_GREEN_ReadCompare(void) 
 817:.\Generated_Source\PSoC4/PWM_GREEN.c ****     {
 470              		.loc 1 817 0
 471              		.cfi_startproc
 472 0000 80B5     		push	{r7, lr}
 473              		.cfi_def_cfa_offset 8
 474              		.cfi_offset 7, -8
 475              		.cfi_offset 14, -4
 476 0002 00AF     		add	r7, sp, #0
 477              		.cfi_def_cfa_register 7
 818:.\Generated_Source\PSoC4/PWM_GREEN.c ****         #if(PWM_GREEN_UsingFixedFunction)
 819:.\Generated_Source\PSoC4/PWM_GREEN.c ****             return ((uint8)CY_GET_REG16(PWM_GREEN_COMPARE1_LSB_PTR));
 820:.\Generated_Source\PSoC4/PWM_GREEN.c ****         #else
 821:.\Generated_Source\PSoC4/PWM_GREEN.c ****             return (CY_GET_REG8(PWM_GREEN_COMPARE1_LSB_PTR));
 478              		.loc 1 821 0
 479 0004 024B     		ldr	r3, .L40
 480 0006 1B78     		ldrb	r3, [r3]
 481 0008 DBB2     		uxtb	r3, r3
 822:.\Generated_Source\PSoC4/PWM_GREEN.c ****         #endif /* (PWM_GREEN_UsingFixedFunction) */
 823:.\Generated_Source\PSoC4/PWM_GREEN.c ****     }
 482              		.loc 1 823 0
 483 000a 181C     		mov	r0, r3
 484 000c BD46     		mov	sp, r7
 485              		@ sp needed
 486 000e 80BD     		pop	{r7, pc}
 487              	.L41:
 488              		.align	2
ARM GAS  C:\Users\wzh\AppData\Local\Temp\ccbPi7hd.s 			page 24


 489              	.L40:
 490 0010 22000F40 		.word	1074724898
 491              		.cfi_endproc
 492              	.LFE13:
 493              		.size	PWM_GREEN_ReadCompare, .-PWM_GREEN_ReadCompare
 494              		.section	.text.PWM_GREEN_ReadPeriod,"ax",%progbits
 495              		.align	2
 496              		.global	PWM_GREEN_ReadPeriod
 497              		.code	16
 498              		.thumb_func
 499              		.type	PWM_GREEN_ReadPeriod, %function
 500              	PWM_GREEN_ReadPeriod:
 501              	.LFB14:
 824:.\Generated_Source\PSoC4/PWM_GREEN.c **** 
 825:.\Generated_Source\PSoC4/PWM_GREEN.c **** #else
 826:.\Generated_Source\PSoC4/PWM_GREEN.c **** 
 827:.\Generated_Source\PSoC4/PWM_GREEN.c **** 
 828:.\Generated_Source\PSoC4/PWM_GREEN.c ****     /*******************************************************************************
 829:.\Generated_Source\PSoC4/PWM_GREEN.c ****     * Function Name: PWM_GREEN_ReadCompare1
 830:.\Generated_Source\PSoC4/PWM_GREEN.c ****     ********************************************************************************
 831:.\Generated_Source\PSoC4/PWM_GREEN.c ****     *
 832:.\Generated_Source\PSoC4/PWM_GREEN.c ****     * Summary:
 833:.\Generated_Source\PSoC4/PWM_GREEN.c ****     *  Reads the compare value for the compare1 output.
 834:.\Generated_Source\PSoC4/PWM_GREEN.c ****     *
 835:.\Generated_Source\PSoC4/PWM_GREEN.c ****     * Parameters:
 836:.\Generated_Source\PSoC4/PWM_GREEN.c ****     *  None
 837:.\Generated_Source\PSoC4/PWM_GREEN.c ****     *
 838:.\Generated_Source\PSoC4/PWM_GREEN.c ****     * Return:
 839:.\Generated_Source\PSoC4/PWM_GREEN.c ****     *  uint8/uint16: Current compare value.
 840:.\Generated_Source\PSoC4/PWM_GREEN.c ****     *
 841:.\Generated_Source\PSoC4/PWM_GREEN.c ****     *******************************************************************************/
 842:.\Generated_Source\PSoC4/PWM_GREEN.c ****     uint8 PWM_GREEN_ReadCompare1(void) 
 843:.\Generated_Source\PSoC4/PWM_GREEN.c ****     {
 844:.\Generated_Source\PSoC4/PWM_GREEN.c ****         return (CY_GET_REG8(PWM_GREEN_COMPARE1_LSB_PTR));
 845:.\Generated_Source\PSoC4/PWM_GREEN.c ****     }
 846:.\Generated_Source\PSoC4/PWM_GREEN.c **** 
 847:.\Generated_Source\PSoC4/PWM_GREEN.c **** 
 848:.\Generated_Source\PSoC4/PWM_GREEN.c ****     /*******************************************************************************
 849:.\Generated_Source\PSoC4/PWM_GREEN.c ****     * Function Name: PWM_GREEN_ReadCompare2
 850:.\Generated_Source\PSoC4/PWM_GREEN.c ****     ********************************************************************************
 851:.\Generated_Source\PSoC4/PWM_GREEN.c ****     *
 852:.\Generated_Source\PSoC4/PWM_GREEN.c ****     * Summary:
 853:.\Generated_Source\PSoC4/PWM_GREEN.c ****     *  Reads the compare value for the compare2 output.
 854:.\Generated_Source\PSoC4/PWM_GREEN.c ****     *
 855:.\Generated_Source\PSoC4/PWM_GREEN.c ****     * Parameters:
 856:.\Generated_Source\PSoC4/PWM_GREEN.c ****     *  None
 857:.\Generated_Source\PSoC4/PWM_GREEN.c ****     *
 858:.\Generated_Source\PSoC4/PWM_GREEN.c ****     * Return:
 859:.\Generated_Source\PSoC4/PWM_GREEN.c ****     *  uint8/uint16: Current compare value.
 860:.\Generated_Source\PSoC4/PWM_GREEN.c ****     *
 861:.\Generated_Source\PSoC4/PWM_GREEN.c ****     *******************************************************************************/
 862:.\Generated_Source\PSoC4/PWM_GREEN.c ****     uint8 PWM_GREEN_ReadCompare2(void) 
 863:.\Generated_Source\PSoC4/PWM_GREEN.c ****     {
 864:.\Generated_Source\PSoC4/PWM_GREEN.c ****         return (CY_GET_REG8(PWM_GREEN_COMPARE2_LSB_PTR));
 865:.\Generated_Source\PSoC4/PWM_GREEN.c ****     }
 866:.\Generated_Source\PSoC4/PWM_GREEN.c **** 
 867:.\Generated_Source\PSoC4/PWM_GREEN.c **** #endif /* (PWM_GREEN_UseOneCompareMode) */
ARM GAS  C:\Users\wzh\AppData\Local\Temp\ccbPi7hd.s 			page 25


 868:.\Generated_Source\PSoC4/PWM_GREEN.c **** 
 869:.\Generated_Source\PSoC4/PWM_GREEN.c **** 
 870:.\Generated_Source\PSoC4/PWM_GREEN.c **** /*******************************************************************************
 871:.\Generated_Source\PSoC4/PWM_GREEN.c **** * Function Name: PWM_GREEN_ReadPeriod
 872:.\Generated_Source\PSoC4/PWM_GREEN.c **** ********************************************************************************
 873:.\Generated_Source\PSoC4/PWM_GREEN.c **** *
 874:.\Generated_Source\PSoC4/PWM_GREEN.c **** * Summary:
 875:.\Generated_Source\PSoC4/PWM_GREEN.c **** *  Reads the period value used by the PWM hardware.
 876:.\Generated_Source\PSoC4/PWM_GREEN.c **** *
 877:.\Generated_Source\PSoC4/PWM_GREEN.c **** * Parameters:
 878:.\Generated_Source\PSoC4/PWM_GREEN.c **** *  None
 879:.\Generated_Source\PSoC4/PWM_GREEN.c **** *
 880:.\Generated_Source\PSoC4/PWM_GREEN.c **** * Return:
 881:.\Generated_Source\PSoC4/PWM_GREEN.c **** *  uint8/16: Period value
 882:.\Generated_Source\PSoC4/PWM_GREEN.c **** *
 883:.\Generated_Source\PSoC4/PWM_GREEN.c **** *******************************************************************************/
 884:.\Generated_Source\PSoC4/PWM_GREEN.c **** uint8 PWM_GREEN_ReadPeriod(void) 
 885:.\Generated_Source\PSoC4/PWM_GREEN.c **** {
 502              		.loc 1 885 0
 503              		.cfi_startproc
 504 0000 80B5     		push	{r7, lr}
 505              		.cfi_def_cfa_offset 8
 506              		.cfi_offset 7, -8
 507              		.cfi_offset 14, -4
 508 0002 00AF     		add	r7, sp, #0
 509              		.cfi_def_cfa_register 7
 886:.\Generated_Source\PSoC4/PWM_GREEN.c ****     #if(PWM_GREEN_UsingFixedFunction)
 887:.\Generated_Source\PSoC4/PWM_GREEN.c ****         return ((uint8)CY_GET_REG16(PWM_GREEN_PERIOD_LSB_PTR));
 888:.\Generated_Source\PSoC4/PWM_GREEN.c ****     #else
 889:.\Generated_Source\PSoC4/PWM_GREEN.c ****         return (CY_GET_REG8(PWM_GREEN_PERIOD_LSB_PTR));
 510              		.loc 1 889 0
 511 0004 024B     		ldr	r3, .L44
 512 0006 1B78     		ldrb	r3, [r3]
 513 0008 DBB2     		uxtb	r3, r3
 890:.\Generated_Source\PSoC4/PWM_GREEN.c ****     #endif /* (PWM_GREEN_UsingFixedFunction) */
 891:.\Generated_Source\PSoC4/PWM_GREEN.c **** }
 514              		.loc 1 891 0
 515 000a 181C     		mov	r0, r3
 516 000c BD46     		mov	sp, r7
 517              		@ sp needed
 518 000e 80BD     		pop	{r7, pc}
 519              	.L45:
 520              		.align	2
 521              	.L44:
 522 0010 42000F40 		.word	1074724930
 523              		.cfi_endproc
 524              	.LFE14:
 525              		.size	PWM_GREEN_ReadPeriod, .-PWM_GREEN_ReadPeriod
 526              		.text
 527              	.Letext0:
 528              		.file 2 ".\\Generated_Source\\PSoC4\\cytypes.h"